Microsoft (R) COFF/PE Dumper Version 14.40.33812.0
Copyright (C) Microsoft Corporation.  All rights reserved.


Dump of file TBCVS2019D.dll

File Type: DLL

  Section contains the following exports for TBCVS2019D.dll

    00000000 characteristics
    FFFFFFFF time date stamp
        0.00 version
           1 ordinal base
        1135 number of functions
        1135 number of names

    ordinal hint RVA      name

          1    0 0007F023 ??0AddressSpaceElement@SoftingOPCToolboxClient@@QAE@ABV01@@Z
          2    1 0007F6FE ??0AddressSpaceElement@SoftingOPCToolboxClient@@QAE@W4tagEnumAddressSpaceElementType@1@V?$basic_string@DU?$char_traits@D@std@@V?$allocator@D@2@@std@@1K@Z
          3    2 000844CE ??0AddressSpaceElement@SoftingOPCToolboxServer@@IAE@AAV?$basic_string@DU?$char_traits@D@std@@V?$allocator@D@2@@std@@KKK@Z
          4    3 000851E9 ??0AddressSpaceElement@SoftingOPCToolboxServer@@IAE@XZ
          5    4 000813A5 ??0AddressSpaceElement@SoftingOPCToolboxServer@@QAE@ABV01@@Z
          6    5 0007F357 ??0AddressSpaceElementBrowseOptions@SoftingOPCToolboxClient@@QAE@ABV01@@Z
          7    6 00083D0D ??0AddressSpaceElementBrowseOptions@SoftingOPCToolboxClient@@QAE@XZ
          8    7 00085DBA ??0AddressSpaceRoot@SoftingOPCToolboxServer@@IAE@PAVAddressSpaceElement@1@@Z
          9    8 00085F5E ??0AddressSpaceRoot@SoftingOPCToolboxServer@@IAE@W4tagEnumAddressSpaceType@1@PAVAddressSpaceElement@1@@Z
         10    9 000828D6 ??0AddressSpaceRoot@SoftingOPCToolboxServer@@QAE@ABV01@@Z
         11    A 0008194A ??0AeAddressSpaceElement@SoftingOPCToolboxServer@@IAE@V?$basic_string@DU?$char_traits@D@std@@V?$allocator@D@2@@std@@KKK@Z
         12    B 00082DDB ??0AeAddressSpaceElement@SoftingOPCToolboxServer@@IAE@XZ
         13    C 0008553B ??0AeAddressSpaceElement@SoftingOPCToolboxServer@@QAE@ABV01@@Z
         14    D 00083100 ??0AeAddressSpaceRoot@SoftingOPCToolboxServer@@IAE@W4tagEnumAddressSpaceType@1@@Z
         15    E 00084A64 ??0AeAddressSpaceRoot@SoftingOPCToolboxServer@@IAE@XZ
         16    F 00084A46 ??0AeAddressSpaceRoot@SoftingOPCToolboxServer@@QAE@ABV01@@Z
         17   10 00083B37 ??0AeAttribute@SoftingOPCToolboxClient@@QAE@ABV01@@Z
         18   11 00081CC9 ??0AeAttribute@SoftingOPCToolboxClient@@QAE@KV?$basic_string@DU?$char_traits@D@std@@V?$allocator@D@2@@std@@G@Z
         19   12 00080E4B ??0AeAttribute@SoftingOPCToolboxClient@@QAE@XZ
         20   13 0007F3FC ??0AeAttribute@SoftingOPCToolboxServer@@QAE@$$QAV01@@Z
         21   14 0007F866 ??0AeAttribute@SoftingOPCToolboxServer@@QAE@ABV01@@Z
         22   15 0008515D ??0AeAttribute@SoftingOPCToolboxServer@@QAE@KAAV?$basic_string@DU?$char_traits@D@std@@V?$allocator@D@2@@std@@W4VARENUM@@@Z
         23   16 00080176 ??0AeCategory@SoftingOPCToolboxClient@@AAE@W4tagEnumEventType@@KV?$basic_string@DU?$char_traits@D@std@@V?$allocator@D@2@@std@@PAVAeSession@1@@Z
         24   17 00084672 ??0AeCategory@SoftingOPCToolboxClient@@QAE@ABV01@@Z
         25   18 0007FA96 ??0AeCategory@SoftingOPCToolboxClient@@QAE@XZ
         26   19 00082B74 ??0AeCategory@SoftingOPCToolboxServer@@IAE@W4tagEnumEventType@@KAAV?$basic_string@DU?$char_traits@D@std@@V?$allocator@D@2@@std@@K@Z
         27   1A 00082566 ??0AeCategory@SoftingOPCToolboxServer@@QAE@ABV01@@Z
         28   1B 00084307 ??0AeCategory@SoftingOPCToolboxServer@@QAE@W4tagEnumEventType@@KAAV?$basic_string@DU?$char_traits@D@std@@V?$allocator@D@2@@std@@@Z
         29   1C 00083AB5 ??0AeCondition@SoftingOPCToolboxClient@@AAE@W4tagEnumEventType@@KKV?$basic_string@DU?$char_traits@D@std@@V?$allocator@D@2@@std@@1VDateTime@@V?$vector@PAVVariant@@V?$allocator@PAVVariant@@@std@@@4@1W4tagEnumConditionChange@@W4tagEnumConditionState@@HW4tagEnumQuality@@112K@Z
         30   1D 00084B2C ??0AeCondition@SoftingOPCToolboxClient@@QAE@ABV01@@Z
         31   1E 00084FE6 ??0AeCondition@SoftingOPCToolboxClient@@QAE@XZ
         32   1F 00085293 ??0AeCondition@SoftingOPCToolboxServer@@QAE@ABV01@@Z
         33   20 000852BB ??0AeCondition@SoftingOPCToolboxServer@@QAE@XZ
         34   21 00084244 ??0AeConditionDefinition@SoftingOPCToolboxServer@@QAE@AAV?$basic_string@DU?$char_traits@D@std@@V?$allocator@D@2@@std@@@Z
         35   22 00083673 ??0AeConditionDefinition@SoftingOPCToolboxServer@@QAE@ABV01@@Z
         36   23 0008322C ??0AeConditionState@SoftingOPCToolboxClient@@QAE@ABV01@@Z
         37   24 00080BC1 ??0AeConditionState@SoftingOPCToolboxClient@@QAE@XZ
         38   25 00082746 ??0AeEvent@SoftingOPCToolboxClient@@QAE@ABV01@@Z
         39   26 00081B7F ??0AeEvent@SoftingOPCToolboxClient@@QAE@W4tagEnumEventType@@KKV?$basic_string@DU?$char_traits@D@std@@V?$allocator@D@2@@std@@1VDateTime@@V?$vector@PAVVariant@@V?$allocator@PAVVariant@@@std@@@4@1@Z
         40   27 00081A08 ??0AeEvent@SoftingOPCToolboxClient@@QAE@XZ
         41   28 0008491A ??0AeEvent@SoftingOPCToolboxServer@@QAE@ABV01@@Z
         42   29 00081F03 ??0AeEvent@SoftingOPCToolboxServer@@QAE@W4tagEnumEventType@@AAV?$basic_string@DU?$char_traits@D@std@@V?$allocator@D@2@@std@@K@Z
         43   2A 00085900 ??0AeReturnedAttributes@SoftingOPCToolboxClient@@QAE@ABV01@@Z
         44   2B 00082CFA ??0AeReturnedAttributes@SoftingOPCToolboxClient@@QAE@XZ
         45   2C 00081B11 ??0AeSession@SoftingOPCToolboxClient@@QAE@ABV01@@Z
         46   2D 00083736 ??0AeSession@SoftingOPCToolboxClient@@QAE@ABV?$basic_string@DU?$char_traits@D@std@@V?$allocator@D@2@@std@@@Z
         47   2E 0008022F ??0AeSubConditionDefinition@SoftingOPCToolboxServer@@QAE@AAV?$basic_string@DU?$char_traits@D@std@@V?$allocator@D@2@@std@@0K@Z
         48   2F 00085DB5 ??0AeSubConditionDefinition@SoftingOPCToolboxServer@@QAE@AAV?$basic_string@DU?$char_traits@D@std@@V?$allocator@D@2@@std@@@Z
         49   30 0007F136 ??0AeSubConditionDefinition@SoftingOPCToolboxServer@@QAE@ABV01@@Z
         50   31 0007FE97 ??0AeSubscription@SoftingOPCToolboxClient@@QAE@ABV01@@Z
         51   32 000822AA ??0AeSubscription@SoftingOPCToolboxClient@@QAE@PAVAeSession@1@@Z
         52   33 00082485 ??0Application@SoftingOPCToolboxClient@@AAE@XZ
         53   34 0008382B ??0Application@SoftingOPCToolboxClient@@QAE@ABV01@@Z
         54   35 00082408 ??0Application@SoftingOPCToolboxServer@@AAE@XZ
         55   36 0008134B ??0Application@SoftingOPCToolboxServer@@QAE@ABV01@@Z
         56   37 00085F45 ??0Creator@SoftingOPCToolboxServer@@QAE@ABV01@@Z
         57   38 00083E2F ??0Creator@SoftingOPCToolboxServer@@QAE@XZ
         58   39 00083551 ??0DaAddressSpaceElement@SoftingOPCToolboxClient@@QAE@ABV01@@Z
         59   3A 000804D2 ??0DaAddressSpaceElement@SoftingOPCToolboxClient@@QAE@W4tagEnumAddressSpaceElementType@1@V?$basic_string@DU?$char_traits@D@std@@V?$allocator@D@2@@std@@1K1PAVDaSession@1@@Z
         60   3B 000815B7 ??0DaAddressSpaceElement@SoftingOPCToolboxServer@@IAE@V?$basic_string@DU?$char_traits@D@std@@V?$allocator@D@2@@std@@0KKK@Z
         61   3C 00081567 ??0DaAddressSpaceElement@SoftingOPCToolboxServer@@IAE@XZ
         62   3D 00080FC2 ??0DaAddressSpaceElement@SoftingOPCToolboxServer@@QAE@ABV01@@Z
         63   3E 0008190E ??0DaAddressSpaceElementBrowseOptions@SoftingOPCToolboxClient@@QAE@ABV01@@Z
         64   3F 00082548 ??0DaAddressSpaceElementBrowseOptions@SoftingOPCToolboxClient@@QAE@XZ
         65   40 0008365F ??0DaAddressSpaceRoot@SoftingOPCToolboxServer@@QAE@ABV01@@Z
         66   41 0008336C ??0DaAddressSpaceRoot@SoftingOPCToolboxServer@@QAE@W4tagEnumAddressSpaceType@1@@Z
         67   42 00080DC9 ??0DaAddressSpaceRoot@SoftingOPCToolboxServer@@QAE@XZ
         68   43 00080D79 ??0DaConstantProperty@SoftingOPCToolboxServer@@QAE@AAV01@@Z
         69   44 00081EAE ??0DaConstantProperty@SoftingOPCToolboxServer@@QAE@HAAV?$basic_string@DU?$char_traits@D@std@@V?$allocator@D@2@@std@@0AAVValueQT@@@Z
         70   45 00085946 ??0DaGetPropertiesOptions@SoftingOPCToolboxClient@@QAE@ABV01@@Z
         71   46 00084870 ??0DaGetPropertiesOptions@SoftingOPCToolboxClient@@QAE@XZ
         72   47 000823D1 ??0DaItem@SoftingOPCToolboxClient@@QAE@ABV01@@Z
         73   48 00085153 ??0DaItem@SoftingOPCToolboxClient@@QAE@V?$basic_string@DU?$char_traits@D@std@@V?$allocator@D@2@@std@@PAVDaSubscription@1@@Z
         74   49 000838DA ??0DaProperty@SoftingOPCToolboxClient@@AAE@KV?$basic_string@DU?$char_traits@D@std@@V?$allocator@D@2@@std@@000GPAVValueQT@@J@Z
         75   4A 000836FF ??0DaProperty@SoftingOPCToolboxClient@@QAE@ABV01@@Z
         76   4B 00080A9F ??0DaProperty@SoftingOPCToolboxServer@@QAE@ABV01@@Z
         77   4C 00082804 ??0DaProperty@SoftingOPCToolboxServer@@QAE@XZ
         78   4D 000843B6 ??0DaRequest@SoftingOPCToolboxServer@@QAE@AAV01@@Z
         79   4E 0008220F ??0DaRequest@SoftingOPCToolboxServer@@QAE@W4tagEnumTransactionType@1@KPAVDaAddressSpaceElement@1@HK@Z
         80   4F 00085527 ??0DaSession@SoftingOPCToolboxClient@@QAE@ABV01@@Z
         81   50 0007F5F5 ??0DaSession@SoftingOPCToolboxClient@@QAE@ABV?$basic_string@DU?$char_traits@D@std@@V?$allocator@D@2@@std@@@Z
         82   51 000801B2 ??0DaSession@SoftingOPCToolboxServer@@QAE@ABV01@@Z
         83   52 000848CF ??0DaSession@SoftingOPCToolboxServer@@QAE@W4tagEnumSessionType@1@K@Z
         84   53 00086035 ??0DaSubscription@SoftingOPCToolboxClient@@QAE@ABV01@@Z
         85   54 00081B52 ??0DaSubscription@SoftingOPCToolboxClient@@QAE@KPAVDaSession@1@@Z
         86   55 00083A92 ??0DaTransaction@SoftingOPCToolboxServer@@QAE@ABV01@@Z
         87   56 000814C2 ??0DaTransaction@SoftingOPCToolboxServer@@QAE@W4tagEnumTransactionType@1@AAV?$vector@PAVDaRequest@SoftingOPCToolboxServer@@V?$allocator@PAVDaRequest@SoftingOPCToolboxServer@@@std@@@std@@K@Z
         88   57 00085617 ??0DateTime@@QAE@ABV0@@Z
         89   58 0008469F ??0DateTime@@QAE@PBU_FILETIME@@@Z
         90   59 000863F5 ??0DateTime@@QAE@XZ
         91   5A 0007F1FE ??0IAddressSpaceElement@SoftingOPCToolboxServer@@QAE@ABV01@@Z
         92   5B 00085126 ??0IAddressSpaceElement@SoftingOPCToolboxServer@@QAE@XZ
         93   5C 0007F1AE ??0Mutex@@QAE@ABV0@@Z
         94   5D 000850D1 ??0Mutex@@QAE@XZ
         95   5E 00081B8E ??0ObjectSpaceElement@SoftingOPCToolboxClient@@QAE@ABV01@@Z
         96   5F 00084BC2 ??0ObjectSpaceElement@SoftingOPCToolboxClient@@QAE@XZ
         97   60 00085612 ??0ServerBrowser@SoftingOPCToolboxClient@@QAE@ABV01@@Z
         98   61 00081A30 ??0ServerBrowser@SoftingOPCToolboxClient@@QAE@V?$basic_string@DU?$char_traits@D@std@@V?$allocator@D@2@@std@@@Z
         99   62 0007F497 ??0ServerBrowserData@SoftingOPCToolboxClient@@AAE@V?$basic_string@DU?$char_traits@D@std@@V?$allocator@D@2@@std@@000W4tagEnumOPCSpecification@@0@Z
        100   63 00083C77 ??0ServerBrowserData@SoftingOPCToolboxClient@@QAE@ABV01@@Z
        101   64 00080EA5 ??0ServerBrowserData@SoftingOPCToolboxClient@@QAE@XZ
        102   65 00080BFD ??0ServerStatus@SoftingOPCToolboxClient@@IAE@KVDateTime@@0V?$basic_string@DU?$char_traits@D@std@@V?$allocator@D@2@@std@@1V?$vector@V?$basic_string@DU?$char_traits@D@std@@V?$allocator@D@2@@std@@V?$allocator@V?$basic_string@DU?$char_traits@D@std@@V?$allocator@D@2@@std@@@2@@4@0JJ1@Z
        103   66 0008627E ??0ServerStatus@SoftingOPCToolboxClient@@QAE@ABV01@@Z
        104   67 000855CC ??0ServerStatus@SoftingOPCToolboxClient@@QAE@XZ
        105   68 0007F172 ??0ValueData@@QAE@ABUtagVARIANT@@@Z
        106   69 0007F050 ??0ValueData@@QAE@ABV0@@Z
        107   6A 00085CC0 ??0ValueData@@QAE@PBUtagVARIANT@@@Z
        108   6B 00083E6B ??0ValueData@@QAE@XZ
        109   6C 0007FCA3 ??0ValueQT@@QAE@AAUtagVARIANT@@W4tagEnumQuality@@VDateTime@@@Z
        110   6D 00082F43 ??0ValueQT@@QAE@AAV0@@Z
        111   6E 00082138 ??0ValueQT@@QAE@XZ
        112   6F 00081CB0 ??0Variant@@QAE@ABUtagVARIANT@@@Z
        113   70 00081751 ??0Variant@@QAE@ABV0@@Z
        114   71 0008138C ??0Variant@@QAE@D@Z
        115   72 00085130 ??0Variant@@QAE@E@Z
        116   73 00083F24 ??0Variant@@QAE@F@Z
        117   74 0007F393 ??0Variant@@QAE@G@Z
        118   75 00080FD6 ??0Variant@@QAE@H@Z
        119   76 00082AB6 ??0Variant@@QAE@I@Z
        120   77 0008298A ??0Variant@@QAE@J@Z
        121   78 0007F6D6 ??0Variant@@QAE@K@Z
        122   79 0008310A ??0Variant@@QAE@M@Z
        123   7A 00085167 ??0Variant@@QAE@N@Z
        124   7B 00081C06 ??0Variant@@QAE@PBD@Z
        125   7C 00080310 ??0Variant@@QAE@PBUtagVARIANT@@@Z
        126   7D 00084E6F ??0Variant@@QAE@TtagCY@@@Z
        127   7E 00080D2E ??0Variant@@QAE@XZ
        128   7F 00080C02 ??0Variant@@QAE@_J@Z
        129   80 0007F3CA ??0Variant@@QAE@_K@Z
        130   81 00085C1B ??0Variant@@QAE@_N@Z
        131   82 000833F8 ??0WebTemplate@SoftingOPCToolboxServer@@QAE@ABV01@@Z
        132   83 00080414 ??0WebTemplate@SoftingOPCToolboxServer@@QAE@XZ
        133   84 0008086A ??1AddressSpaceElement@SoftingOPCToolboxClient@@UAE@XZ
        134   85 00083961 ??1AddressSpaceElement@SoftingOPCToolboxServer@@UAE@XZ
        135   86 0008437A ??1AddressSpaceElementBrowseOptions@SoftingOPCToolboxClient@@UAE@XZ
        136   87 00085D1A ??1AddressSpaceRoot@SoftingOPCToolboxServer@@UAE@XZ
        137   88 0008506D ??1AeAddressSpaceElement@SoftingOPCToolboxServer@@UAE@XZ
        138   89 000800F4 ??1AeAddressSpaceRoot@SoftingOPCToolboxServer@@UAE@XZ
        139   8A 000813EB ??1AeAttribute@SoftingOPCToolboxClient@@UAE@XZ
        140   8B 00080F2C ??1AeAttribute@SoftingOPCToolboxServer@@QAE@XZ
        141   8C 00081779 ??1AeCategory@SoftingOPCToolboxClient@@UAE@XZ
        142   8D 0007F42E ??1AeCategory@SoftingOPCToolboxServer@@UAE@XZ
        143   8E 00085EF0 ??1AeCondition@SoftingOPCToolboxClient@@UAE@XZ
        144   8F 00080815 ??1AeCondition@SoftingOPCToolboxServer@@UAE@XZ
        145   90 00081B07 ??1AeConditionDefinition@SoftingOPCToolboxServer@@UAE@XZ
        146   91 0008234A ??1AeConditionState@SoftingOPCToolboxClient@@QAE@XZ
        147   92 0008600D ??1AeEvent@SoftingOPCToolboxClient@@UAE@XZ
        148   93 00081193 ??1AeEvent@SoftingOPCToolboxServer@@UAE@XZ
        149   94 0007FB63 ??1AeReturnedAttributes@SoftingOPCToolboxClient@@UAE@XZ
        150   95 00081C01 ??1AeSession@SoftingOPCToolboxClient@@UAE@XZ
        151   96 0008207F ??1AeSubConditionDefinition@SoftingOPCToolboxServer@@UAE@XZ
        152   97 0008390C ??1AeSubscription@SoftingOPCToolboxClient@@UAE@XZ
        153   98 0008341B ??1Application@SoftingOPCToolboxClient@@EAE@XZ
        154   99 00082737 ??1Application@SoftingOPCToolboxServer@@EAE@XZ
        155   9A 00082BD8 ??1Creator@SoftingOPCToolboxServer@@UAE@XZ
        156   9B 0008637D ??1DaAddressSpaceElement@SoftingOPCToolboxClient@@UAE@XZ
        157   9C 000849E2 ??1DaAddressSpaceElement@SoftingOPCToolboxServer@@UAE@XZ
        158   9D 000837F4 ??1DaAddressSpaceElementBrowseOptions@SoftingOPCToolboxClient@@UAE@XZ
        159   9E 00080946 ??1DaAddressSpaceRoot@SoftingOPCToolboxServer@@UAE@XZ
        160   9F 00082AF2 ??1DaConstantProperty@SoftingOPCToolboxServer@@UAE@XZ
        161   A0 000860AD ??1DaGetPropertiesOptions@SoftingOPCToolboxClient@@UAE@XZ
        162   A1 00086134 ??1DaItem@SoftingOPCToolboxClient@@UAE@XZ
        163   A2 000808DD ??1DaProperty@SoftingOPCToolboxClient@@UAE@XZ
        164   A3 0007F717 ??1DaProperty@SoftingOPCToolboxServer@@UAE@XZ
        165   A4 000822EB ??1DaRequest@SoftingOPCToolboxServer@@UAE@XZ
        166   A5 00085D51 ??1DaSession@SoftingOPCToolboxClient@@UAE@XZ
        167   A6 0007FBBD ??1DaSession@SoftingOPCToolboxServer@@UAE@XZ
        168   A7 00080AC7 ??1DaSubscription@SoftingOPCToolboxClient@@UAE@XZ
        169   A8 00085A1D ??1DaTransaction@SoftingOPCToolboxServer@@UAE@XZ
        170   A9 00084E5B ??1IAddressSpaceElement@SoftingOPCToolboxServer@@UAE@XZ
        171   AA 000845FA ??1Mutex@@UAE@XZ
        172   AB 000836CD ??1ObjectSpaceElement@SoftingOPCToolboxClient@@UAE@XZ
        173   AC 0007F203 ??1ServerBrowser@SoftingOPCToolboxClient@@UAE@XZ
        174   AD 00080027 ??1ServerBrowserData@SoftingOPCToolboxClient@@UAE@XZ
        175   AE 00082C55 ??1ServerStatus@SoftingOPCToolboxClient@@UAE@XZ
        176   AF 00084082 ??1ValueData@@UAE@XZ
        177   B0 00085266 ??1ValueQT@@UAE@XZ
        178   B1 000813DC ??1Variant@@UAE@XZ
        179   B2 00084A23 ??1WebTemplate@SoftingOPCToolboxServer@@UAE@XZ
        180   B3 000807F7 ??4AddressSpaceElement@SoftingOPCToolboxClient@@QAEAAV01@ABV01@@Z
        181   B4 0008476C ??4AddressSpaceElement@SoftingOPCToolboxServer@@QAEAAV01@ABV01@@Z
        182   B5 00080C20 ??4AddressSpaceElementBrowseOptions@SoftingOPCToolboxClient@@QAEAAV01@ABV01@@Z
        183   B6 00082386 ??4AddressSpaceRoot@SoftingOPCToolboxServer@@QAEAAV01@ABV01@@Z
        184   B7 0008352E ??4AeAddressSpaceElement@SoftingOPCToolboxServer@@QAEAAV01@ABV01@@Z
        185   B8 00082EF3 ??4AeAddressSpaceRoot@SoftingOPCToolboxServer@@QAEAAV01@ABV01@@Z
        186   B9 0007F613 ??4AeAttribute@SoftingOPCToolboxClient@@QAEAAV01@ABV01@@Z
        187   BA 00082B06 ??4AeAttribute@SoftingOPCToolboxServer@@QAEAAV01@$$QAV01@@Z
        188   BB 00082886 ??4AeAttribute@SoftingOPCToolboxServer@@QAEAAV01@ABV01@@Z
        189   BC 0007F57D ??4AeCategory@SoftingOPCToolboxClient@@QAEAAV01@ABV01@@Z
        190   BD 0008105D ??4AeCategory@SoftingOPCToolboxServer@@QAEAAV01@ABV01@@Z
        191   BE 00084695 ??4AeCondition@SoftingOPCToolboxClient@@QAEAAV01@ABV01@@Z
        192   BF 00083074 ??4AeCondition@SoftingOPCToolboxServer@@QAEAAV01@ABV01@@Z
        193   C0 00082219 ??4AeConditionDefinition@SoftingOPCToolboxServer@@QAEAAV01@ABV01@@Z
        194   C1 00084F3C ??4AeConditionState@SoftingOPCToolboxClient@@QAEAAV01@ABV01@@Z
        195   C2 0008202F ??4AeEvent@SoftingOPCToolboxClient@@QAEAAV01@ABV01@@Z
        196   C3 00083678 ??4AeEvent@SoftingOPCToolboxServer@@QAEAAV01@ABV01@@Z
        197   C4 00085978 ??4AeReturnedAttributes@SoftingOPCToolboxClient@@QAEAAV01@ABV01@@Z
        198   C5 00080BDA ??4AeSession@SoftingOPCToolboxClient@@QAEAAV01@ABV01@@Z
        199   C6 00084A78 ??4AeSubConditionDefinition@SoftingOPCToolboxServer@@QAEAAV01@ABV01@@Z
        200   C7 0007F154 ??4AeSubscription@SoftingOPCToolboxClient@@QAEAAV01@ABV01@@Z
        201   C8 0008641D ??4Application@SoftingOPCToolboxClient@@QAEAAV01@ABV01@@Z
        202   C9 00080BF8 ??4Application@SoftingOPCToolboxServer@@QAEAAV01@ABV01@@Z
        203   CA 00080D42 ??4Creator@SoftingOPCToolboxServer@@QAEAAV01@ABV01@@Z
        204   CB 00085464 ??4DaAddressSpaceElement@SoftingOPCToolboxClient@@QAEAAV01@ABV01@@Z
        205   CC 00080AA9 ??4DaAddressSpaceElement@SoftingOPCToolboxServer@@QAEAAV01@ABV01@@Z
        206   CD 00082E5D ??4DaAddressSpaceElementBrowseOptions@SoftingOPCToolboxClient@@QAEAAV01@ABV01@@Z
        207   CE 00083B23 ??4DaAddressSpaceRoot@SoftingOPCToolboxServer@@QAEAAV01@ABV01@@Z
        208   CF 00082C69 ??4DaConstantProperty@SoftingOPCToolboxServer@@QAEAAV01@AAV01@@Z
        209   D0 0008425D ??4DaGetPropertiesOptions@SoftingOPCToolboxClient@@QAEAAV01@ABV01@@Z
        210   D1 000812FB ??4DaItem@SoftingOPCToolboxClient@@QAEAAV01@ABV01@@Z
        211   D2 0008607B ??4DaProperty@SoftingOPCToolboxClient@@QAEAAV01@ABV01@@Z
        212   D3 00082CA5 ??4DaProperty@SoftingOPCToolboxServer@@QAEAAV01@ABV01@@Z
        213   D4 000824E4 ??4DaRequest@SoftingOPCToolboxServer@@QAEAAV01@AAV01@@Z
        214   D5 0008427B ??4DaSession@SoftingOPCToolboxClient@@QAEAAV01@ABV01@@Z
        215   D6 00080F45 ??4DaSession@SoftingOPCToolboxServer@@QAEAAV01@ABV01@@Z
        216   D7 00082D81 ??4DaSubscription@SoftingOPCToolboxClient@@QAEAAV01@ABV01@@Z
        217   D8 00085144 ??4DaTransaction@SoftingOPCToolboxServer@@QAEAAV01@ABV01@@Z
        218   D9 000840B9 ??4DateTime@@QAEABV0@ABU_FILETIME@@@Z
        219   DA 00085D6F ??4DateTime@@QAEABV0@ABV0@@Z
        220   DB 0007F0D7 ??4IAddressSpaceElement@SoftingOPCToolboxServer@@QAEAAV01@ABV01@@Z
        221   DC 00082A57 ??4Mutex@@QAEAAV0@ABV0@@Z
        222   DD 000806F8 ??4ObjectSpaceElement@SoftingOPCToolboxClient@@QAEAAV01@ABV01@@Z
        223   DE 00084D39 ??4ServerBrowser@SoftingOPCToolboxClient@@QAEAAV01@ABV01@@Z
        224   DF 00082935 ??4ServerBrowserData@SoftingOPCToolboxClient@@QAEAAV01@ABV01@@Z
        225   E0 00084D70 ??4ServerStatus@SoftingOPCToolboxClient@@QAEAAV01@ABV01@@Z
        226   E1 00081643 ??4ValueData@@QAEAAV0@AAV0@@Z
        227   E2 000820D9 ??4ValueQT@@QAEAAV0@AAV0@@Z
        228   E3 00083D8F ??4Variant@@QAEABV0@AAV0@@Z
        229   E4 000820D4 ??4Variant@@QAEABV0@ABUtagVARIANT@@@Z
        230   E5 0007F163 ??4Variant@@QAEABV0@D@Z
        231   E6 00080734 ??4Variant@@QAEABV0@E@Z
        232   E7 00083A65 ??4Variant@@QAEABV0@F@Z
        233   E8 00081300 ??4Variant@@QAEABV0@G@Z
        234   E9 0007FD98 ??4Variant@@QAEABV0@H@Z
        235   EA 000847CB ??4Variant@@QAEABV0@I@Z
        236   EB 00083763 ??4Variant@@QAEABV0@J@Z
        237   EC 00086369 ??4Variant@@QAEABV0@K@Z
        238   ED 00080BAD ??4Variant@@QAEABV0@M@Z
        239   EE 0007F848 ??4Variant@@QAEABV0@N@Z
        240   EF 00083A15 ??4Variant@@QAEABV0@PBD@Z
        241   F0 00080A7C ??4Variant@@QAEABV0@PBUtagVARIANT@@@Z
        242   F1 0007F85C ??4Variant@@QAEABV0@TtagCY@@@Z
        243   F2 0007FFE6 ??4Variant@@QAEABV0@_J@Z
        244   F3 00086422 ??4Variant@@QAEABV0@_K@Z
        245   F4 00086274 ??4Variant@@QAEABV0@_N@Z
        246   F5 0007F1C7 ??4WebTemplate@SoftingOPCToolboxServer@@QAEAAV01@ABV01@@Z
        247   F6 0007F938 ??8Variant@@QBEHABUtagVARIANT@@@Z
        248   F7 00085559 ??8Variant@@QBEHABV0@@Z
        249   F8 0007F488 ??8Variant@@QBEHPBUtagVARIANT@@@Z
        250   F9 000815DF ??9Variant@@QBEHABUtagVARIANT@@@Z
        251   FA 000842CB ??9Variant@@QBEHABV0@@Z
        252   FB 0007F82F ??9Variant@@QBEHPBUtagVARIANT@@@Z
        253   FC 000857DE ??BVariant@@QAEPAUtagVARIANT@@XZ
        254   FD 0008505E ??BVariant@@QBEPBUtagVARIANT@@XZ
        255   FE 001956E4 ??_7AddressSpaceElement@SoftingOPCToolboxClient@@6B@
        256   FF 0019CC4C ??_7AddressSpaceElement@SoftingOPCToolboxServer@@6B@
        257  100 0019624C ??_7AddressSpaceElementBrowseOptions@SoftingOPCToolboxClient@@6B@
        258  101 0019CC88 ??_7AddressSpaceRoot@SoftingOPCToolboxServer@@6B@
        259  102 0019D490 ??_7AeAddressSpaceElement@SoftingOPCToolboxServer@@6B@
        260  103 0019D4D0 ??_7AeAddressSpaceRoot@SoftingOPCToolboxServer@@6B@
        261  104 00196A0C ??_7AeAttribute@SoftingOPCToolboxClient@@6B@
        262  105 001969E8 ??_7AeCategory@SoftingOPCToolboxClient@@6B@
        263  106 0019D564 ??_7AeCategory@SoftingOPCToolboxServer@@6B@
        264  107 001969D4 ??_7AeCondition@SoftingOPCToolboxClient@@6B@
        265  108 0019D518 ??_7AeCondition@SoftingOPCToolboxServer@@6B@
        266  109 0019D54C ??_7AeConditionDefinition@SoftingOPCToolboxServer@@6B@
        267  10A 001969C8 ??_7AeEvent@SoftingOPCToolboxClient@@6B@
        268  10B 0019D558 ??_7AeEvent@SoftingOPCToolboxServer@@6B@
        269  10C 00196938 ??_7AeReturnedAttributes@SoftingOPCToolboxClient@@6B@
        270  10D 00195870 ??_7AeSession@SoftingOPCToolboxClient@@6B@
        271  10E 0019D540 ??_7AeSubConditionDefinition@SoftingOPCToolboxServer@@6B@
        272  10F 001968C4 ??_7AeSubscription@SoftingOPCToolboxClient@@6B@
        273  110 00195970 ??_7Application@SoftingOPCToolboxClient@@6B@
        274  111 0019D364 ??_7Application@SoftingOPCToolboxServer@@6B@
        275  112 0019D324 ??_7Creator@SoftingOPCToolboxServer@@6B@
        276  113 00195748 ??_7DaAddressSpaceElement@SoftingOPCToolboxClient@@6B@
        277  114 0019D370 ??_7DaAddressSpaceElement@SoftingOPCToolboxServer@@6B@
        278  115 00196258 ??_7DaAddressSpaceElementBrowseOptions@SoftingOPCToolboxClient@@6B@
        279  116 0019D3C4 ??_7DaAddressSpaceRoot@SoftingOPCToolboxServer@@6B@
        280  117 0019D450 ??_7DaConstantProperty@SoftingOPCToolboxServer@@6B@
        281  118 00197CA4 ??_7DaGetPropertiesOptions@SoftingOPCToolboxClient@@6B@
        282  119 00196944 ??_7DaItem@SoftingOPCToolboxClient@@6B01@@
        283  11A 00196958 ??_7DaItem@SoftingOPCToolboxClient@@6BObjectSpaceElement@1@@
        284  11B 001969BC ??_7DaProperty@SoftingOPCToolboxClient@@6B@
        285  11C 0019D43C ??_7DaProperty@SoftingOPCToolboxServer@@6B@
        286  11D 0019D418 ??_7DaRequest@SoftingOPCToolboxServer@@6B@
        287  11E 00195760 ??_7DaSession@SoftingOPCToolboxClient@@6B01@@
        288  11F 0019580C ??_7DaSession@SoftingOPCToolboxClient@@6BObjectSpaceElement@1@@
        289  120 0019D464 ??_7DaSession@SoftingOPCToolboxServer@@6B@
        290  121 0019680C ??_7DaSubscription@SoftingOPCToolboxClient@@6B01@@
        291  122 00196860 ??_7DaSubscription@SoftingOPCToolboxClient@@6BObjectSpaceElement@1@@
        292  123 0019D428 ??_7DaTransaction@SoftingOPCToolboxServer@@6B@
        293  124 0019CC30 ??_7IAddressSpaceElement@SoftingOPCToolboxServer@@6B@
        294  125 00194B74 ??_7Mutex@@6B@
        295  126 001956F0 ??_7ObjectSpaceElement@SoftingOPCToolboxClient@@6B@
        296  127 00196A18 ??_7ServerBrowser@SoftingOPCToolboxClient@@6B@
        297  128 00196A30 ??_7ServerBrowserData@SoftingOPCToolboxClient@@6B@
        298  129 00196A3C ??_7ServerStatus@SoftingOPCToolboxClient@@6B@
        299  12A 0019541C ??_7ValueData@@6B@
        300  12B 00195428 ??_7ValueQT@@6B@
        301  12C 00195410 ??_7Variant@@6B@
        302  12D 0019D590 ??_7WebTemplate@SoftingOPCToolboxServer@@6B@
        303  12E 001969AC ??_8DaItem@SoftingOPCToolboxClient@@7B@
        304  12F 00195860 ??_8DaSession@SoftingOPCToolboxClient@@7B@
        305  130 001968B4 ??_8DaSubscription@SoftingOPCToolboxClient@@7B@
        306  131 000835C4 ??_DDaItem@SoftingOPCToolboxClient@@QAEXXZ
        307  132 00086337 ??_DDaSession@SoftingOPCToolboxClient@@QAEXXZ
        308  133 00084B22 ??_DDaSubscription@SoftingOPCToolboxClient@@QAEXXZ
        309  134 001D1094 ?CategoryIndex@AeCategory@SoftingOPCToolboxClient@@0KA
        310  135 00082E94 ?Instance@Application@SoftingOPCToolboxClient@@SAPAV12@XZ
        311  136 00085789 ?Instance@Application@SoftingOPCToolboxServer@@SAPAV12@XZ
        312  137 001D000C ?KeyBuilder@DaTransaction@SoftingOPCToolboxServer@@0KA
        313  138 001D1104 ?KeyBuilderJanitor@DaTransaction@SoftingOPCToolboxServer@@0VMutex@@A
        314  139 000825F7 ?Release@Application@SoftingOPCToolboxClient@@SAXXZ
        315  13A 00081A7B ?Release@Application@SoftingOPCToolboxServer@@SAXXZ
        316  13B 0008580B ?SafeArrayAccessData@Variant@@SAJPAUtagSAFEARRAY@@PAPAX@Z
        317  13C 00085F3B ?SafeArrayGetLBound@Variant@@SAJPAUtagSAFEARRAY@@GPAJ@Z
        318  13D 0007F4D8 ?SafeArrayGetUBound@Variant@@SAJPAUtagSAFEARRAY@@GPAJ@Z
        319  13E 000813F0 ?SafeArrayUnaccessData@Variant@@SAJPAUtagSAFEARRAY@@@Z
        320  13F 00081120 ?acknowledge@AeCondition@SoftingOPCToolboxClient@@UAEJV?$basic_string@DU?$char_traits@D@std@@V?$allocator@D@2@@std@@0PAVExecutionOptions@2@@Z
        321  140 00086332 ?acknowledge@AeCondition@SoftingOPCToolboxServer@@UAEJAAV?$basic_string@DU?$char_traits@D@std@@V?$allocator@D@2@@std@@0VDateTime@@@Z
        322  141 0008617A ?acknowledgeAeConditions@AeSession@SoftingOPCToolboxClient@@UAEJABV?$basic_string@DU?$char_traits@D@std@@V?$allocator@D@2@@std@@0AAV?$vector@PAVAeCondition@SoftingOPCToolboxClient@@V?$allocator@PAVAeCondition@SoftingOPCToolboxClient@@@std@@@4@AAV?$vector@JV?$allocator@J@std@@@4@PAVExecutionOptions@2@@Z
        323  142 00086044 ?activate@AeCondition@SoftingOPCToolboxServer@@UAEJAAV?$basic_string@DU?$char_traits@D@std@@V?$allocator@D@2@@std@@K0HVDateTime@@@Z
        324  143 0007F5EB ?activate@Application@SoftingOPCToolboxClient@@QAEJW4tagEnumFeature@@V?$basic_string@DU?$char_traits@D@std@@V?$allocator@D@2@@std@@@Z
        325  144 0007FD25 ?activate@Application@SoftingOPCToolboxServer@@QAEJW4tagEnumFeature@@V?$basic_string@DU?$char_traits@D@std@@V?$allocator@D@2@@std@@@Z
        326  145 000822C3 ?activateConnectionMonitor@AeSession@SoftingOPCToolboxClient@@UAEJHKKKK@Z
        327  146 00081053 ?activateConnectionMonitor@DaSession@SoftingOPCToolboxClient@@UAEJHKKKK@Z
        328  147 00080860 ?activationStateUpdated@DaAddressSpaceRoot@SoftingOPCToolboxServer@@UAEXAAV?$vector@PAVDaAddressSpaceElement@SoftingOPCToolboxServer@@V?$allocator@PAVDaAddressSpaceElement@SoftingOPCToolboxServer@@@std@@@std@@@Z
        329  148 0007F352 ?addAeCategory@Application@SoftingOPCToolboxServer@@QAEJPAVAeCategory@2@@Z
        330  149 00085FF4 ?addAeSession@Application@SoftingOPCToolboxClient@@AAEJABV?$basic_string@DU?$char_traits@D@std@@V?$allocator@D@2@@std@@PAVAeSession@2@@Z
        331  14A 0007FE9C ?addAeSubscription@AeSession@SoftingOPCToolboxClient@@EAEJPAVAeSubscription@2@@Z
        332  14B 0007F433 ?addAttribute@AeCategory@SoftingOPCToolboxServer@@MAEJPAVAeAttribute@2@@Z
        333  14C 000846D6 ?addAttribute@AeCategory@SoftingOPCToolboxServer@@UAEJKAAV?$basic_string@DU?$char_traits@D@std@@V?$allocator@D@2@@std@@W4VARENUM@@@Z
        334  14D 0008221E ?addChild@AddressSpaceElement@SoftingOPCToolboxServer@@UAEHPAV12@@Z
        335  14E 00080F22 ?addChild@AddressSpaceRoot@SoftingOPCToolboxServer@@UAEHPAVAddressSpaceElement@2@@Z
        336  14F 000805E0 ?addChild@AeAddressSpaceElement@SoftingOPCToolboxServer@@UAEHPAVAddressSpaceElement@2@@Z
        337  150 000863B4 ?addChild@DaAddressSpaceElement@SoftingOPCToolboxServer@@UAEHPAVAddressSpaceElement@2@@Z
        338  151 000862E2 ?addConditionDefinition@AeCategory@SoftingOPCToolboxServer@@UAEJAAV?$basic_string@DU?$char_traits@D@std@@V?$allocator@D@2@@std@@@Z
        339  152 0007F726 ?addDaItem@DaSubscription@SoftingOPCToolboxClient@@EAEJPAVDaItem@2@@Z
        340  153 00086378 ?addDaItem@DaSubscription@SoftingOPCToolboxClient@@EAEJV?$basic_string@DU?$char_traits@D@std@@V?$allocator@D@2@@std@@PAVDaItem@2@@Z
        341  154 000817BA ?addDaSession@Application@SoftingOPCToolboxClient@@AAEJABV?$basic_string@DU?$char_traits@D@std@@V?$allocator@D@2@@std@@PAVDaSession@2@@Z
        342  155 00082F02 ?addDaSubscription@DaSession@SoftingOPCToolboxClient@@EAEJKPAVDaSubscription@2@@Z
        343  156 00085D56 ?addElementToArray@AddressSpaceRoot@SoftingOPCToolboxServer@@MAEHPAVAddressSpaceElement@2@@Z
        344  157 000825FC ?addMicroseconds@DateTime@@QAEX_K@Z
        345  158 00085095 ?addSession@Application@SoftingOPCToolboxServer@@QAEXPAVDaSession@2@K@Z
        346  159 00084438 ?addSubConditionDefinition@AeCategory@SoftingOPCToolboxServer@@UAEJAAV?$basic_string@DU?$char_traits@D@std@@V?$allocator@D@2@@std@@0@Z
        347  15A 000838EE ?addSubConditonData@AeConditionDefinition@SoftingOPCToolboxServer@@QAEJAAV?$basic_string@DU?$char_traits@D@std@@V?$allocator@D@2@@std@@0K@Z
        348  15B 0008516C ?addSubConditonData@AeConditionDefinition@SoftingOPCToolboxServer@@QAEJAAV?$basic_string@DU?$char_traits@D@std@@V?$allocator@D@2@@std@@@Z
        349  15C 00085220 ?addTpCredentials@Application@SoftingOPCToolboxServer@@QAEJAAV?$vector@V?$basic_string@DU?$char_traits@D@std@@V?$allocator@D@2@@std@@V?$allocator@V?$basic_string@DU?$char_traits@D@std@@V?$allocator@D@2@@std@@@2@@std@@0@Z
        350  15D 00084E56 ?addTransaction@Application@SoftingOPCToolboxServer@@AAEXKPAVDaTransaction@2@@Z
        351  15E 00080D65 ?addedToAddressSpace@AddressSpaceElement@SoftingOPCToolboxServer@@UAEXXZ
        352  15F 00085784 ?areEqual@Variant@@SAHPBUtagVARIANT@@0@Z
        353  160 00083DE9 ?areEqualArrays@Variant@@SAHPBUtagVARIANT@@0@Z
        354  161 000857C5 ?browse@AeSession@SoftingOPCToolboxClient@@UAEJPAVAddressSpaceElement@2@PAVAddressSpaceElementBrowseOptions@2@AAV?$vector@PAVAddressSpaceElement@SoftingOPCToolboxClient@@V?$allocator@PAVAddressSpaceElement@SoftingOPCToolboxClient@@@std@@@std@@PAVExecutionOptions@2@@Z
        355  162 000832B8 ?browse@DaAddressSpaceElement@SoftingOPCToolboxClient@@UAEJPAVDaAddressSpaceElementBrowseOptions@2@AAV?$vector@PAVDaAddressSpaceElement@SoftingOPCToolboxClient@@V?$allocator@PAVDaAddressSpaceElement@SoftingOPCToolboxClient@@@std@@@std@@PAVExecutionOptions@2@@Z
        356  163 000839E3 ?browse@DaSession@SoftingOPCToolboxClient@@UAEJV?$basic_string@DU?$char_traits@D@std@@V?$allocator@D@2@@std@@0PAVDaAddressSpaceElementBrowseOptions@2@AAV?$vector@PAVDaAddressSpaceElement@SoftingOPCToolboxClient@@V?$allocator@PAVDaAddressSpaceElement@SoftingOPCToolboxClient@@@std@@@4@PAVExecutionOptions@2@@Z
        357  164 0007F9AB ?browse@ServerBrowser@SoftingOPCToolboxClient@@UAEJW4tagEnumOPCSpecification@@W4tagEnumServerBrowserData@2@AAV?$vector@PAVServerBrowserData@SoftingOPCToolboxClient@@V?$allocator@PAVServerBrowserData@SoftingOPCToolboxClient@@@std@@@std@@PAVExecutionOptions@2@@Z
        358  165 000816CA ?cancelRefreshAeConditions@AeSubscription@SoftingOPCToolboxClient@@UAEJPAVExecutionOptions@2@@Z
        359  166 00083FDD ?change@AeCondition@SoftingOPCToolboxServer@@UAEJXZ
        360  167 0007FB09 ?change@DaAddressSpaceElement@SoftingOPCToolboxServer@@UAEXHH@Z
        361  168 000806B7 ?changeCondition@Application@SoftingOPCToolboxServer@@QAEJPAVAeCondition@2@@Z
        362  169 00080973 ?changeConditions@Application@SoftingOPCToolboxServer@@QAEJAAV?$vector@PAVAeCondition@SoftingOPCToolboxServer@@V?$allocator@PAVAeCondition@SoftingOPCToolboxServer@@@std@@@std@@@Z
        363  16A 0007FD57 ?changeDatatype@Variant@@QAEHG@Z
        364  16B 00080103 ?changeDatatype@Variant@@SAHPAUtagVARIANT@@G0PAJ@Z
        365  16C 00081F26 ?changeDatatype@Variant@@SAHPAUtagVARIANT@@GK0PAJ@Z
        366  16D 00084A0F ?clear@DateTime@@QAEXXZ
        367  16E 0007F1CC ?clear@Variant@@QAEXXZ
        368  16F 0007FF6E ?complete@DaRequest@SoftingOPCToolboxServer@@QAEJXZ
        369  170 00085CFC ?completeRequest@DaTransaction@SoftingOPCToolboxServer@@QAEJPAVDaRequest@2@@Z
        370  171 0007FFC3 ?completeRequests@DaTransaction@SoftingOPCToolboxServer@@QAEJXZ
        371  172 000826DD ?completedInternally@DaRequest@SoftingOPCToolboxServer@@UAEXXZ
        372  173 0007F983 ?connect@ObjectSpaceElement@SoftingOPCToolboxClient@@UAEJHHPAVExecutionOptions@2@@Z
        373  174 00081562 ?connectSession@DaSession@SoftingOPCToolboxServer@@UAEXXZ
        374  175 00085108 ?copyTo@Variant@@QBEHPAUtagVARIANT@@@Z
        375  176 00085FB8 ?createAeAddressSpaceElement@Creator@SoftingOPCToolboxServer@@UAEPAVAeAddressSpaceElement@2@XZ
        376  177 000844D3 ?createAeAddressSpaceRoot@Creator@SoftingOPCToolboxServer@@UAEPAVAeAddressSpaceRoot@2@XZ
        377  178 000858D3 ?createDaAddressSpaceElement@Creator@SoftingOPCToolboxServer@@UAEPAVDaAddressSpaceElement@2@XZ
        378  179 00081125 ?createDaAddressSpaceRoot@Creator@SoftingOPCToolboxServer@@UAEPAVDaAddressSpaceRoot@2@XZ
        379  17A 0008039C ?createInternalAeAddressSpaceElement@Creator@SoftingOPCToolboxServer@@UAEPAVAeAddressSpaceElement@2@AAV?$basic_string@DU?$char_traits@D@std@@V?$allocator@D@2@@std@@KKK@Z
        380  17B 00085923 ?createInternalDaAddressSpaceElement@Creator@SoftingOPCToolboxServer@@UAEPAVDaAddressSpaceElement@2@AAV?$basic_string@DU?$char_traits@D@std@@V?$allocator@D@2@@std@@0KKK@Z
        381  17C 0008363C ?createInternalDaAddressSpaceElementEx@Creator@SoftingOPCToolboxServer@@UAEPAVDaAddressSpaceElement@2@AAV?$basic_string@DU?$char_traits@D@std@@V?$allocator@D@2@@std@@0KKKW4tagEnumAddressSpaceElementData@2@W4tagEnumAccessRights@@W4tagEnumIoMode@2@HHW4VARENUM@@@Z
        382  17D 00080D24 ?createRequest@Creator@SoftingOPCToolboxServer@@UAEPAVDaRequest@2@W4tagEnumTransactionType@2@KPAVDaAddressSpaceElement@2@HK@Z
        383  17E 00081265 ?createSession@Creator@SoftingOPCToolboxServer@@UAEPAVDaSession@2@W4tagEnumSessionType@2@K@Z
        384  17F 00080EFF ?createTransaction@Creator@SoftingOPCToolboxServer@@UAEPAVDaTransaction@2@W4tagEnumTransactionType@2@AAV?$vector@PAVDaRequest@SoftingOPCToolboxServer@@V?$allocator@PAVDaRequest@SoftingOPCToolboxServer@@@std@@@std@@K@Z
        385  180 000810DF ?createWebTemplate@Creator@SoftingOPCToolboxServer@@UAEPAVWebTemplate@2@XZ
        386  181 00081869 ?day@DateTime@@QAEGXZ
        387  182 00080E23 ?dayGMT@DateTime@@QAEGXZ
        388  183 00080419 ?deactivate@AeCondition@SoftingOPCToolboxServer@@UAEJAAV?$basic_string@DU?$char_traits@D@std@@V?$allocator@D@2@@std@@KHVDateTime@@@Z
        389  184 0007F0AF ?disable@AeCondition@SoftingOPCToolboxServer@@UAEJAAV?$basic_string@DU?$char_traits@D@std@@V?$allocator@D@2@@std@@@Z
        390  185 000802E8 ?disconnect@ObjectSpaceElement@SoftingOPCToolboxClient@@UAEJPAVExecutionOptions@2@@Z
        391  186 00084A91 ?disconnectSession@DaSession@SoftingOPCToolboxServer@@UAEXXZ
        392  187 00084AD7 ?enable@AeCondition@SoftingOPCToolboxServer@@UAEJAAV?$basic_string@DU?$char_traits@D@std@@V?$allocator@D@2@@std@@@Z
        393  188 00083187 ?enableAeConditionsByArea@AeSession@SoftingOPCToolboxClient@@UAEJAAV?$vector@V?$basic_string@DU?$char_traits@D@std@@V?$allocator@D@2@@std@@V?$allocator@V?$basic_string@DU?$char_traits@D@std@@V?$allocator@D@2@@std@@@2@@std@@HPAVExecutionOptions@2@@Z
        394  189 000826B0 ?enableAeConditionsBySource@AeSession@SoftingOPCToolboxClient@@UAEJAAV?$vector@V?$basic_string@DU?$char_traits@D@std@@V?$allocator@D@2@@std@@V?$allocator@V?$basic_string@DU?$char_traits@D@std@@V?$allocator@D@2@@std@@@2@@std@@HPAVExecutionOptions@2@@Z
        395  18A 00080135 ?enableTracing@Application@SoftingOPCToolboxClient@@QAEXW4tagEnumTraceGroup@@000V?$basic_string@DU?$char_traits@D@std@@V?$allocator@D@2@@std@@KK@Z
        396  18B 00080B12 ?enableTracing@Application@SoftingOPCToolboxServer@@QAEXW4tagEnumTraceGroup@@000V?$basic_string@DU?$char_traits@D@std@@V?$allocator@D@2@@std@@KK@Z
        397  18C 00085351 ?findAeSession@Application@SoftingOPCToolboxClient@@AAEPAVAeSession@2@K@Z
        398  18D 00083786 ?findDaSession@Application@SoftingOPCToolboxClient@@AAEPAVDaSession@2@K@Z
        399  18E 0007F159 ?findItem@DaSubscription@SoftingOPCToolboxClient@@AAEPAVDaItem@2@K@Z
        400  18F 00085EC3 ?findRequestByHandle@DaTransaction@SoftingOPCToolboxServer@@QAEJKPAPAVDaRequest@2@@Z
        401  190 00080F4F ?findSubscription@AeSession@SoftingOPCToolboxClient@@AAEPAVAeSubscription@2@K@Z
        402  191 0007FE47 ?findSubscription@DaSession@SoftingOPCToolboxClient@@AAEPAVDaSubscription@2@K@Z
        403  192 00084C17 ?findTransaction@Application@SoftingOPCToolboxServer@@QAEPAVDaTransaction@2@K@Z
        404  193 00081BD9 ?fire@AeEvent@SoftingOPCToolboxServer@@QAEJXZ
        405  194 00085B53 ?fireEvents@Application@SoftingOPCToolboxServer@@QAEJAAV?$vector@PAVAeEvent@SoftingOPCToolboxServer@@V?$allocator@PAVAeEvent@SoftingOPCToolboxServer@@@std@@@std@@@Z
        406  195 000859B9 ?forceDemoVersion@Application@SoftingOPCToolboxClient@@QAEJXZ
        407  196 0008606C ?forceDemoVersion@Application@SoftingOPCToolboxServer@@QAEJXZ
        408  197 0008496A ?geDcomAuthLevel@Application@SoftingOPCToolboxServer@@QBEKXZ
        409  198 0007F35C ?get@DateTime@@QAEABU_FILETIME@@XZ
        410  199 00083966 ?get@DateTime@@QAEXAAN@Z
        411  19A 00081986 ?get@DateTime@@QAEXPAU_FILETIME@@@Z
        412  19B 00080D06 ?get@Variant@@QAEXPAX@Z
        413  19C 0007FA91 ?getAccessRights@DaAddressSpaceElement@SoftingOPCToolboxServer@@QAE?AW4tagEnumAccessRights@@XZ
        414  19D 0007F401 ?getAccessRights@DaItem@SoftingOPCToolboxClient@@QAE?AW4tagEnumAccessRights@@XZ
        415  19E 00084861 ?getAccessRights@DaProperty@SoftingOPCToolboxServer@@QAE?AW4tagEnumAccessRights@@XZ
        416  19F 00081049 ?getAccessRightsFilter@DaAddressSpaceElementBrowseOptions@SoftingOPCToolboxClient@@QAE?AW4tagEnumAccessRights@@XZ
        417  1A0 0008090A ?getAckComment@AeCondition@SoftingOPCToolboxServer@@QAEAAV?$basic_string@DU?$char_traits@D@std@@V?$allocator@D@2@@std@@XZ
        418  1A1 000801FD ?getAckId@AeCondition@SoftingOPCToolboxServer@@QAEAAV?$basic_string@DU?$char_traits@D@std@@V?$allocator@D@2@@std@@XZ
        419  1A2 000828D1 ?getAckRequired@AeCondition@SoftingOPCToolboxClient@@QAEHXZ
        420  1A3 0007F1A9 ?getAckRequired@AeCondition@SoftingOPCToolboxServer@@QAEHXZ
        421  1A4 00081BA7 ?getAckTime@AeCondition@SoftingOPCToolboxServer@@QAE?AVDateTime@@XZ
        422  1A5 00080761 ?getAcknowledgerComment@AeConditionState@SoftingOPCToolboxClient@@QAEAAV?$basic_string@DU?$char_traits@D@std@@V?$allocator@D@2@@std@@XZ
        423  1A6 000819C7 ?getAcknowledgerId@AeConditionState@SoftingOPCToolboxClient@@QAEAAV?$basic_string@DU?$char_traits@D@std@@V?$allocator@D@2@@std@@XZ
        424  1A7 0007FFDC ?getActive@DaAddressSpaceElement@SoftingOPCToolboxServer@@QAEHXZ
        425  1A8 00080B53 ?getActiveSubConditionDefinition@AeConditionState@SoftingOPCToolboxClient@@QAEAAV?$basic_string@DU?$char_traits@D@std@@V?$allocator@D@2@@std@@XZ
        426  1A9 0008364B ?getActiveSubConditionDescription@AeConditionState@SoftingOPCToolboxClient@@QAEAAV?$basic_string@DU?$char_traits@D@std@@V?$allocator@D@2@@std@@XZ
        427  1AA 00085E14 ?getActiveSubConditionName@AeCondition@SoftingOPCToolboxServer@@QAEAAV?$basic_string@DU?$char_traits@D@std@@V?$allocator@D@2@@std@@XZ
        428  1AB 0008426C ?getActiveSubConditionName@AeConditionState@SoftingOPCToolboxClient@@QAEAAV?$basic_string@DU?$char_traits@D@std@@V?$allocator@D@2@@std@@XZ
        429  1AC 00083902 ?getActiveSubConditionSeverity@AeConditionState@SoftingOPCToolboxClient@@QAEKXZ
        430  1AD 00083F97 ?getActiveTime@AeCondition@SoftingOPCToolboxClient@@QAE?AVDateTime@@XZ
        431  1AE 0007F884 ?getActorId@AeEvent@SoftingOPCToolboxClient@@QAEAAV?$basic_string@DU?$char_traits@D@std@@V?$allocator@D@2@@std@@XZ
        432  1AF 00084983 ?getActorId@AeEvent@SoftingOPCToolboxServer@@QAEAAV?$basic_string@DU?$char_traits@D@std@@V?$allocator@D@2@@std@@XZ
        433  1B0 0007F45B ?getAddressSpaceDelimiter@Application@SoftingOPCToolboxServer@@QAEDXZ
        434  1B1 00081BC5 ?getAddressSpaceElement@DaRequest@SoftingOPCToolboxServer@@QAEPAVDaAddressSpaceElement@2@XZ
        435  1B2 000843E3 ?getAeAddressSpaceRoot@Application@SoftingOPCToolboxServer@@QAEPAVAeAddressSpaceRoot@2@XZ
        436  1B3 000813C8 ?getAeAttributeList@AeCategory@SoftingOPCToolboxServer@@UAEAAV?$map@KPAVAeAttribute@SoftingOPCToolboxServer@@U?$less@K@std@@V?$allocator@U?$pair@$$CBKPAVAeAttribute@SoftingOPCToolboxServer@@@std@@@4@@std@@XZ
        437  1B4 0008239A ?getAeCategoryList@Application@SoftingOPCToolboxServer@@QAE?AV?$vector@PAVAeCategory@SoftingOPCToolboxServer@@V?$allocator@PAVAeCategory@SoftingOPCToolboxServer@@@std@@@std@@XZ
        438  1B5 00085766 ?getAeConditionList@AeSubscription@SoftingOPCToolboxClient@@QAEAAV?$vector@PAVAeCondition@SoftingOPCToolboxClient@@V?$allocator@PAVAeCondition@SoftingOPCToolboxClient@@@std@@@std@@XZ
        439  1B6 0007FB5E ?getAeConditionList@Application@SoftingOPCToolboxServer@@QAE?AV?$vector@PAVAeCondition@SoftingOPCToolboxServer@@V?$allocator@PAVAeCondition@SoftingOPCToolboxServer@@@std@@@std@@XZ
        440  1B7 00081F76 ?getAeConditionState@AeSession@SoftingOPCToolboxClient@@UAEJAAV?$basic_string@DU?$char_traits@D@std@@V?$allocator@D@2@@std@@0AAV?$vector@PAVAeAttribute@SoftingOPCToolboxClient@@V?$allocator@PAVAeAttribute@SoftingOPCToolboxClient@@@std@@@4@AAVAeConditionState@2@PAVExecutionOptions@2@@Z
        441  1B8 00084541 ?getAeSession@AeCondition@SoftingOPCToolboxClient@@QAEPAVAeSession@2@XZ
        442  1B9 00085702 ?getAeSession@AeSubscription@SoftingOPCToolboxClient@@QAEPAVAeSession@2@XZ
        443  1BA 00080D0B ?getAeSessionList@Application@SoftingOPCToolboxClient@@QAE?AV?$vector@PAVAeSession@SoftingOPCToolboxClient@@V?$allocator@PAVAeSession@SoftingOPCToolboxClient@@@std@@@std@@XZ
        444  1BB 00082FA7 ?getAeSubscription@AeCondition@SoftingOPCToolboxClient@@IAEPAVAeSubscription@2@XZ
        445  1BC 00083731 ?getAppType@Application@SoftingOPCToolboxServer@@QAE?AW4tagEnumApplicationType@2@XZ
        446  1BD 00082EA8 ?getAttributeValueList@AeEvent@SoftingOPCToolboxServer@@QAEABV?$vector@VVariant@@V?$allocator@VVariant@@@std@@@std@@XZ
        447  1BE 0007F195 ?getAttributes@AeEvent@SoftingOPCToolboxClient@@QAEAAV?$vector@PAVVariant@@V?$allocator@PAVVariant@@@std@@@std@@XZ
        448  1BF 00085388 ?getAttributesErrors@AeConditionState@SoftingOPCToolboxClient@@QAEAAV?$vector@JV?$allocator@J@std@@@std@@XZ
        449  1C0 00082BE2 ?getAttributesFromServer@ObjectSpaceElement@SoftingOPCToolboxClient@@UAEJV?$vector@W4tagEnumObjectAttribute@SoftingOPCToolboxClient@@V?$allocator@W4tagEnumObjectAttribute@SoftingOPCToolboxClient@@@std@@@std@@V?$vector@JV?$allocator@J@std@@@4@PAVExecutionOptions@2@@Z
        450  1C1 00085DA1 ?getAttributesIds@AeReturnedAttributes@SoftingOPCToolboxClient@@QAEABV?$vector@KV?$allocator@K@std@@@std@@XZ
        451  1C2 0008080B ?getBSTR@Variant@@QAEPADAAPAD@Z
        452  1C3 00081AAD ?getBandwidth@ServerStatus@SoftingOPCToolboxClient@@QAEJXZ
        453  1C4 0008064E ?getBuildNumber@Application@SoftingOPCToolboxServer@@QAEFXZ
        454  1C5 00082106 ?getCacheValue@DaAddressSpaceElement@SoftingOPCToolboxServer@@UAEJAAVValueQT@@@Z
        455  1C6 0008198B ?getCategory@AeCondition@SoftingOPCToolboxServer@@QAEPAVAeCategory@2@XZ
        456  1C7 0007F1B8 ?getCategory@AeEvent@SoftingOPCToolboxClient@@QAEKXZ
        457  1C8 00083DB2 ?getCategoryCode@AeCategory@SoftingOPCToolboxClient@@QAEKXZ
        458  1C9 000854C3 ?getCategoryId@AeEvent@SoftingOPCToolboxServer@@QAEKXZ
        459  1CA 000843F7 ?getCategoryId@AeReturnedAttributes@SoftingOPCToolboxClient@@QAEKXZ
        460  1CB 00085E1E ?getCbImpLevel@Application@SoftingOPCToolboxServer@@QBEKXZ
        461  1CC 00081201 ?getChangeMask@AeCondition@SoftingOPCToolboxClient@@QAE?AW4tagEnumConditionChange@@XZ
        462  1CD 0008123D ?getChangeMask@AeCondition@SoftingOPCToolboxServer@@QAEGXZ
        463  1CE 00080829 ?getChildren@AddressSpaceRoot@SoftingOPCToolboxServer@@UAE?AV?$vector@PAVAddressSpaceElement@SoftingOPCToolboxServer@@V?$allocator@PAVAddressSpaceElement@SoftingOPCToolboxServer@@@std@@@std@@XZ
        464  1CF 0008546E ?getChildren@AeAddressSpaceElement@SoftingOPCToolboxServer@@UAE?AV?$vector@PAVAddressSpaceElement@SoftingOPCToolboxServer@@V?$allocator@PAVAddressSpaceElement@SoftingOPCToolboxServer@@@std@@@std@@XZ
        465  1D0 000845C3 ?getChildren@DaAddressSpaceElement@SoftingOPCToolboxServer@@UAE?AV?$vector@PAVAddressSpaceElement@SoftingOPCToolboxServer@@V?$allocator@PAVAddressSpaceElement@SoftingOPCToolboxServer@@@std@@@std@@XZ
        466  1D1 000843D4 ?getClassContext@AeSession@SoftingOPCToolboxClient@@UAE?AW4tagEnumClassContext@2@XZ
        467  1D2 00081346 ?getClassContext@DaSession@SoftingOPCToolboxClient@@UAE?AW4tagEnumClassContext@2@XZ
        468  1D3 00080BC6 ?getClientCheckPeriod@Application@SoftingOPCToolboxServer@@QAEJXZ
        469  1D4 00081E8B ?getClientName@AeSession@SoftingOPCToolboxClient@@UAE?AV?$basic_string@DU?$char_traits@D@std@@V?$allocator@D@2@@std@@XZ
        470  1D5 00083853 ?getClientName@DaSession@SoftingOPCToolboxClient@@UAE?AV?$basic_string@DU?$char_traits@D@std@@V?$allocator@D@2@@std@@XZ
        471  1D6 00080F36 ?getClientName@DaSession@SoftingOPCToolboxServer@@QAE?AV?$basic_string@DU?$char_traits@D@std@@V?$allocator@D@2@@std@@XZ
        472  1D7 00085DC9 ?getClsId@ServerBrowserData@SoftingOPCToolboxClient@@QAEAAV?$basic_string@DU?$char_traits@D@std@@V?$allocator@D@2@@std@@XZ
        473  1D8 0007FB9F ?getClsidAe@Application@SoftingOPCToolboxServer@@QAEAAV?$basic_string@DU?$char_traits@D@std@@V?$allocator@D@2@@std@@XZ
        474  1D9 00084D93 ?getClsidDa@Application@SoftingOPCToolboxServer@@QAEAAV?$basic_string@DU?$char_traits@D@std@@V?$allocator@D@2@@std@@XZ
        475  1DA 000849B5 ?getConditionAckTime@AeConditionState@SoftingOPCToolboxClient@@QAE?AVDateTime@@XZ
        476  1DB 00083E98 ?getConditionActiveTime@AeConditionState@SoftingOPCToolboxClient@@QAE?AVDateTime@@XZ
        477  1DC 00083F92 ?getConditionDefinition@AeCategory@SoftingOPCToolboxServer@@UAEPAVAeConditionDefinition@2@AAV?$basic_string@DU?$char_traits@D@std@@V?$allocator@D@2@@std@@@Z
        478  1DD 000815A8 ?getConditionInactiveTime@AeConditionState@SoftingOPCToolboxClient@@QAE?AVDateTime@@XZ
        479  1DE 00085AE5 ?getConditionName@AeCondition@SoftingOPCToolboxClient@@QAEAAV?$basic_string@DU?$char_traits@D@std@@V?$allocator@D@2@@std@@XZ
        480  1DF 00084DD4 ?getContinuationPoint@DaAddressSpaceElementBrowseOptions@SoftingOPCToolboxClient@@QAEAAV?$basic_string@DU?$char_traits@D@std@@V?$allocator@D@2@@std@@XZ
        481  1E0 00081C0B ?getCookie@AeCondition@SoftingOPCToolboxClient@@QAEKXZ
        482  1E1 00081D41 ?getCreator@Application@SoftingOPCToolboxServer@@QAEPAVCreator@2@XZ
        483  1E2 00085E05 ?getCurrentState@ObjectSpaceElement@SoftingOPCToolboxClient@@UAE?AW4tagEnumObjectState@2@XZ
        484  1E3 000858D8 ?getCurrentTime@ServerStatus@SoftingOPCToolboxClient@@QAE?AVDateTime@@XZ
        485  1E4 00083330 ?getDaAddressSpaceRoot@Application@SoftingOPCToolboxServer@@QAEPAVDaAddressSpaceRoot@2@XZ
        486  1E5 0007F096 ?getDaItemAttributesFromServer@DaSubscription@SoftingOPCToolboxClient@@UAEJV?$vector@PAVDaItem@SoftingOPCToolboxClient@@V?$allocator@PAVDaItem@SoftingOPCToolboxClient@@@std@@@std@@V?$vector@W4tagEnumObjectAttribute@SoftingOPCToolboxClient@@V?$allocator@W4tagEnumObjectAttribute@SoftingOPCToolboxClient@@@std@@@4@AAV?$vector@JV?$allocator@J@std@@@4@PAVExecutionOptions@2@@Z
        487  1E6 00080F09 ?getDaProperties@DaAddressSpaceElement@SoftingOPCToolboxClient@@UAEJAAV?$vector@PAVDaProperty@SoftingOPCToolboxClient@@V?$allocator@PAVDaProperty@SoftingOPCToolboxClient@@@std@@@std@@PAVExecutionOptions@2@@Z
        488  1E7 00080E0A ?getDaProperties@DaAddressSpaceElement@SoftingOPCToolboxClient@@UAEJPAVDaGetPropertiesOptions@2@AAV?$vector@PAVDaProperty@SoftingOPCToolboxClient@@V?$allocator@PAVDaProperty@SoftingOPCToolboxClient@@@std@@@std@@PAVExecutionOptions@2@@Z
        489  1E8 0007F843 ?getDaProperties@DaSession@SoftingOPCToolboxClient@@EAEJPAVDaAddressSpaceElement@2@V?$basic_string@DU?$char_traits@D@std@@V?$allocator@D@2@@std@@1PAVDaGetPropertiesOptions@2@AAV?$vector@PAVDaProperty@SoftingOPCToolboxClient@@V?$allocator@PAVDaProperty@SoftingOPCToolboxClient@@@std@@@5@PAVExecutionOptions@2@@Z
        490  1E9 00081292 ?getDaProperties@DaSession@SoftingOPCToolboxClient@@UAEJV?$basic_string@DU?$char_traits@D@std@@V?$allocator@D@2@@std@@0PAVDaGetPropertiesOptions@2@AAV?$vector@PAVDaProperty@SoftingOPCToolboxClient@@V?$allocator@PAVDaProperty@SoftingOPCToolboxClient@@@std@@@4@PAVExecutionOptions@2@@Z
        491  1EA 00082656 ?getDaSession@DaSubscription@SoftingOPCToolboxClient@@QAEPAVDaSession@2@XZ
        492  1EB 00085FD1 ?getDaSessionList@Application@SoftingOPCToolboxClient@@QAE?AV?$vector@PAVDaSession@SoftingOPCToolboxClient@@V?$allocator@PAVDaSession@SoftingOPCToolboxClient@@@std@@@std@@XZ
        493  1EC 000851E4 ?getDaSubscription@DaItem@SoftingOPCToolboxClient@@QAEPAVDaSubscription@2@XZ
        494  1ED 0007F627 ?getData@ValueData@@QBEABVVariant@@XZ
        495  1EE 00085AEA ?getDataRetrievalMode@DaSubscription@SoftingOPCToolboxClient@@QAE?AW4tagEnumDataRetrievalMode@2@XZ
        496  1EF 000826CE ?getDataType@AeAttribute@SoftingOPCToolboxClient@@QAEGXZ
        497  1F0 000857ED ?getDataType@AeAttribute@SoftingOPCToolboxServer@@QAE?AW4VARENUM@@XZ
        498  1F1 0008638C ?getDataType@DaProperty@SoftingOPCToolboxClient@@QAEGXZ
        499  1F2 000804D7 ?getDataTypeFilter@DaAddressSpaceElementBrowseOptions@SoftingOPCToolboxClient@@QAEGXZ
        500  1F3 0007F208 ?getDatatype@DaAddressSpaceElement@SoftingOPCToolboxServer@@QAE?AW4VARENUM@@XZ
        501  1F4 0008428F ?getDatatype@DaProperty@SoftingOPCToolboxServer@@QAE?AW4VARENUM@@XZ
        502  1F5 0007F14F ?getDcomAuthLevel@Application@SoftingOPCToolboxClient@@QAEKXZ
        503  1F6 00080CED ?getDcomCbAuthLevel@Application@SoftingOPCToolboxServer@@QBEKXZ
        504  1F7 00085C48 ?getDcomImpLevel@Application@SoftingOPCToolboxClient@@QAEKXZ
        505  1F8 00080BA3 ?getDcomImpLevel@Application@SoftingOPCToolboxServer@@QBEKXZ
        506  1F9 00085437 ?getDeadband@DaItem@SoftingOPCToolboxClient@@QAEMXZ
        507  1FA 00081490 ?getDeadband@DaSubscription@SoftingOPCToolboxClient@@QAEMXZ
        508  1FB 00084A6E ?getDefinition@AeCondition@SoftingOPCToolboxServer@@QAEPAVAeConditionDefinition@2@XZ
        509  1FC 0008156C ?getDefinition@AeConditionDefinition@SoftingOPCToolboxServer@@QAEAAV?$basic_string@DU?$char_traits@D@std@@V?$allocator@D@2@@std@@XZ
        510  1FD 00084E7E ?getDefinition@AeSubConditionDefinition@SoftingOPCToolboxServer@@QAEABV?$basic_string@DU?$char_traits@D@std@@V?$allocator@D@2@@std@@XZ
        511  1FE 0007FE60 ?getDescription@AeAttribute@SoftingOPCToolboxClient@@QAEAAV?$basic_string@DU?$char_traits@D@std@@V?$allocator@D@2@@std@@XZ
        512  1FF 00084398 ?getDescription@AeCategory@SoftingOPCToolboxClient@@QAEAAV?$basic_string@DU?$char_traits@D@std@@V?$allocator@D@2@@std@@XZ
        513  200 000805EF ?getDescription@AeSubConditionDefinition@SoftingOPCToolboxServer@@QAEABV?$basic_string@DU?$char_traits@D@std@@V?$allocator@D@2@@std@@XZ
        514  201 00082A84 ?getDescription@Application@SoftingOPCToolboxServer@@QAEAAV?$basic_string@DU?$char_traits@D@std@@V?$allocator@D@2@@std@@XZ
        515  202 0007FF2D ?getDescription@DaProperty@SoftingOPCToolboxClient@@QAEAAV?$basic_string@DU?$char_traits@D@std@@V?$allocator@D@2@@std@@XZ
        516  203 00081D23 ?getDescription@DaProperty@SoftingOPCToolboxServer@@QAEAAV?$basic_string@DU?$char_traits@D@std@@V?$allocator@D@2@@std@@XZ
        517  204 0008217E ?getDescription@ServerBrowserData@SoftingOPCToolboxClient@@QAEAAV?$basic_string@DU?$char_traits@D@std@@V?$allocator@D@2@@std@@XZ
        518  205 0007F537 ?getEUInfo@DaItem@SoftingOPCToolboxClient@@QAE?AVVariant@@XZ
        519  206 0008548C ?getEUType@DaItem@SoftingOPCToolboxClient@@QAE?AW4tagEnumEUType@@XZ
        520  207 000841D1 ?getElementFromArray@AddressSpaceRoot@SoftingOPCToolboxServer@@MAEPAVAddressSpaceElement@2@K@Z
        521  208 00080F9F ?getElementNameFilter@AddressSpaceElementBrowseOptions@SoftingOPCToolboxClient@@QAEAAV?$basic_string@DU?$char_traits@D@std@@V?$allocator@D@2@@std@@XZ
        522  209 0007F32A ?getElementSyncRoot@AddressSpaceRoot@SoftingOPCToolboxServer@@QAE?AVMutex@@XZ
        523  20A 00082CD7 ?getElementTypeFilter@AddressSpaceElementBrowseOptions@SoftingOPCToolboxClient@@QAE?AW4tagEnumAddressSpaceElementType@2@XZ
        524  20B 00084343 ?getErrorString@AeSession@SoftingOPCToolboxClient@@UAEJJAAV?$basic_string@DU?$char_traits@D@std@@V?$allocator@D@2@@std@@PAVExecutionOptions@2@@Z
        525  20C 0007F3A2 ?getErrorString@DaSession@SoftingOPCToolboxClient@@UAEJJAAV?$basic_string@DU?$char_traits@D@std@@V?$allocator@D@2@@std@@PAVExecutionOptions@2@@Z
        526  20D 00080F0E ?getEventAttributes@AeCondition@SoftingOPCToolboxServer@@QAEAAV?$vector@VVariant@@V?$allocator@VVariant@@@std@@@std@@XZ
        527  20E 0008210B ?getEventAttributes@AeConditionState@SoftingOPCToolboxClient@@QAEAAV?$vector@PAVVariant@@V?$allocator@PAVVariant@@@std@@@std@@XZ
        528  20F 000812EC ?getEventType@AeCategory@SoftingOPCToolboxClient@@QAE?AW4tagEnumEventType@@XZ
        529  210 00083623 ?getEventType@AeCategory@SoftingOPCToolboxServer@@QAE?AW4tagEnumEventType@@XZ
        530  211 00085CED ?getEventType@AeCategory@SoftingOPCToolboxServer@@QAEXW4tagEnumEventType@@@Z
        531  212 00086256 ?getEventType@AeEvent@SoftingOPCToolboxClient@@QAE?AW4tagEnumEventType@@XZ
        532  213 00080A40 ?getFilterAreas@AeSubscription@SoftingOPCToolboxClient@@QAE?AV?$vector@V?$basic_string@DU?$char_traits@D@std@@V?$allocator@D@2@@std@@V?$allocator@V?$basic_string@DU?$char_traits@D@std@@V?$allocator@D@2@@std@@@2@@std@@XZ
        533  214 00085FA4 ?getFilterCategories@AeSubscription@SoftingOPCToolboxClient@@QAE?AV?$vector@KV?$allocator@K@std@@@std@@XZ
        534  215 00082728 ?getFilterEventTypes@AeSubscription@SoftingOPCToolboxClient@@QAEKXZ
        535  216 000820C0 ?getFilterSeverityHigh@AeSubscription@SoftingOPCToolboxClient@@QAEKXZ
        536  217 000825B6 ?getFilterSeverityLow@AeSubscription@SoftingOPCToolboxClient@@QAEKXZ
        537  218 0008099B ?getFilterSources@AeSubscription@SoftingOPCToolboxClient@@QAE?AV?$vector@V?$basic_string@DU?$char_traits@D@std@@V?$allocator@D@2@@std@@V?$allocator@V?$basic_string@DU?$char_traits@D@std@@V?$allocator@D@2@@std@@@2@@std@@XZ
        538  219 00082345 ?getForceBrowseUp@AddressSpaceElementBrowseOptions@SoftingOPCToolboxClient@@QAEHXZ
        539  21A 0008536A ?getForcedOpcSpecification@DaSession@SoftingOPCToolboxClient@@UAE?AW4tagEnumOPCSpecification@@XZ
        540  21B 0008484D ?getGroupCount@ServerStatus@SoftingOPCToolboxClient@@QAEJXZ
        541  21C 000836B4 ?getHandle@AddressSpaceElement@SoftingOPCToolboxClient@@QAEKXZ
        542  21D 000856E9 ?getHandle@AeCategory@SoftingOPCToolboxServer@@IAEKXZ
        543  21E 00083C90 ?getHandle@AeCondition@SoftingOPCToolboxServer@@AAEKXZ
        544  21F 0008423F ?getHandle@ObjectSpaceElement@SoftingOPCToolboxClient@@EAEKXZ
        545  220 000803D8 ?getHasChildren@AddressSpaceElement@SoftingOPCToolboxServer@@QAEHXZ
        546  221 000811CF ?getId@AeAttribute@SoftingOPCToolboxClient@@QAEKXZ
        547  222 00080D9C ?getId@AeAttribute@SoftingOPCToolboxServer@@QAEKXZ
        548  223 00081C10 ?getId@AeCategory@SoftingOPCToolboxClient@@QAEKXZ
        549  224 000827F0 ?getId@AeCategory@SoftingOPCToolboxServer@@QAEKXZ
        550  225 0008333A ?getId@DaItem@SoftingOPCToolboxClient@@QAE?AV?$basic_string@DU?$char_traits@D@std@@V?$allocator@D@2@@std@@XZ
        551  226 00084104 ?getId@DaProperty@SoftingOPCToolboxClient@@QAEKXZ
        552  227 0007F1DB ?getId@DaProperty@SoftingOPCToolboxServer@@QAEHXZ
        553  228 000812BF ?getIoMode@DaAddressSpaceElement@SoftingOPCToolboxServer@@QAE?AW4tagEnumIoMode@2@XZ
        554  229 00082B1A ?getIpAddress@ServerBrowser@SoftingOPCToolboxClient@@QAEAAV?$basic_string@DU?$char_traits@D@std@@V?$allocator@D@2@@std@@XZ
        555  22A 00084A9B ?getIpPortHTTP@Application@SoftingOPCToolboxServer@@QAEGXZ
        556  22B 00085545 ?getIsBrowsable@AddressSpaceElement@SoftingOPCToolboxServer@@QAEHXZ
        557  22C 0008171F ?getItemId@DaAddressSpaceElement@SoftingOPCToolboxClient@@QAEAAV?$basic_string@DU?$char_traits@D@std@@V?$allocator@D@2@@std@@XZ
        558  22D 000853BF ?getItemId@DaAddressSpaceElement@SoftingOPCToolboxServer@@QAEAAV?$basic_string@DU?$char_traits@D@std@@V?$allocator@D@2@@std@@XZ
        559  22E 00080EAA ?getItemId@DaProperty@SoftingOPCToolboxClient@@QAEAAV?$basic_string@DU?$char_traits@D@std@@V?$allocator@D@2@@std@@XZ
        560  22F 0008441A ?getItemId@DaProperty@SoftingOPCToolboxServer@@QAEAAV?$basic_string@DU?$char_traits@D@std@@V?$allocator@D@2@@std@@XZ
        561  230 000808CE ?getItemList@DaSubscription@SoftingOPCToolboxClient@@QAE?AV?$vector@PAVDaItem@SoftingOPCToolboxClient@@V?$allocator@PAVDaItem@SoftingOPCToolboxClient@@@std@@@std@@XZ
        562  231 0008296C ?getItemPath@DaAddressSpaceElement@SoftingOPCToolboxClient@@QAEAAV?$basic_string@DU?$char_traits@D@std@@V?$allocator@D@2@@std@@XZ
        563  232 00084AFA ?getItemPath@DaProperty@SoftingOPCToolboxClient@@QAEAAV?$basic_string@DU?$char_traits@D@std@@V?$allocator@D@2@@std@@XZ
        564  233 000851B2 ?getKey@DaTransaction@SoftingOPCToolboxServer@@QAEKXZ
        565  234 0007FE5B ?getLastUpdateTime@ServerStatus@SoftingOPCToolboxClient@@QAE?AVDateTime@@XZ
        566  235 000831CD ?getLocaleId@AeSession@SoftingOPCToolboxClient@@UAE?AV?$basic_string@DU?$char_traits@D@std@@V?$allocator@D@2@@std@@XZ
        567  236 0007F4E7 ?getLocaleId@DaSession@SoftingOPCToolboxClient@@UAE?AV?$basic_string@DU?$char_traits@D@std@@V?$allocator@D@2@@std@@XZ
        568  237 00084474 ?getLocaleId@DaSubscription@SoftingOPCToolboxClient@@QAE?AV?$basic_string@DU?$char_traits@D@std@@V?$allocator@D@2@@std@@XZ
        569  238 00083768 ?getMajorVersion@Application@SoftingOPCToolboxServer@@QAEFXZ
        570  239 0008536F ?getMaxElements@DaAddressSpaceElementBrowseOptions@SoftingOPCToolboxClient@@QAEKXZ
        571  23A 000808E2 ?getMessage@AeCondition@SoftingOPCToolboxServer@@QAEAAV?$basic_string@DU?$char_traits@D@std@@V?$allocator@D@2@@std@@XZ
        572  23B 0007F212 ?getMessage@AeEvent@SoftingOPCToolboxClient@@QAEAAV?$basic_string@DU?$char_traits@D@std@@V?$allocator@D@2@@std@@XZ
        573  23C 00084CF8 ?getMessage@AeEvent@SoftingOPCToolboxServer@@QAEAAV?$basic_string@DU?$char_traits@D@std@@V?$allocator@D@2@@std@@XZ
        574  23D 00084433 ?getMicroseconds@DateTime@@QBE_KXZ
        575  23E 000854FA ?getMinUpdateRateDa@Application@SoftingOPCToolboxServer@@QAEJXZ
        576  23F 00082D0E ?getMinorVersion@Application@SoftingOPCToolboxServer@@QAEFXZ
        577  240 00080C0C ?getName@AddressSpaceElement@SoftingOPCToolboxClient@@QAEAAV?$basic_string@DU?$char_traits@D@std@@V?$allocator@D@2@@std@@XZ
        578  241 0008557C ?getName@AddressSpaceElement@SoftingOPCToolboxServer@@QAEAAV?$basic_string@DU?$char_traits@D@std@@V?$allocator@D@2@@std@@XZ
        579  242 0007F415 ?getName@AeAttribute@SoftingOPCToolboxServer@@QAEAAV?$basic_string@DU?$char_traits@D@std@@V?$allocator@D@2@@std@@XZ
        580  243 000837CC ?getName@AeCategory@SoftingOPCToolboxServer@@QAEAAV?$basic_string@DU?$char_traits@D@std@@V?$allocator@D@2@@std@@XZ
        581  244 000807C5 ?getName@AeCondition@SoftingOPCToolboxServer@@QAEAAV?$basic_string@DU?$char_traits@D@std@@V?$allocator@D@2@@std@@XZ
        582  245 00085225 ?getName@DaProperty@SoftingOPCToolboxClient@@QAEAAV?$basic_string@DU?$char_traits@D@std@@V?$allocator@D@2@@std@@XZ
        583  246 00084578 ?getName@DaProperty@SoftingOPCToolboxServer@@QAEAAV?$basic_string@DU?$char_traits@D@std@@V?$allocator@D@2@@std@@XZ
        584  247 0007F0E6 ?getName@DaSubscription@SoftingOPCToolboxClient@@QAE?AV?$basic_string@DU?$char_traits@D@std@@V?$allocator@D@2@@std@@XZ
        585  248 00084258 ?getNativeDataType@DaItem@SoftingOPCToolboxClient@@QAEGXZ
        586  249 00085F81 ?getObjectHandle@AddressSpaceElement@SoftingOPCToolboxServer@@IAEKXZ
        587  24A 000801B7 ?getObjectHandle@DaSession@SoftingOPCToolboxServer@@IAEKXZ
        588  24B 000832EF ?getOccurenceTime@AeCondition@SoftingOPCToolboxServer@@QAE?AVDateTime@@XZ
        589  24C 0008401E ?getOccurenceTime@AeEvent@SoftingOPCToolboxServer@@QAEABVDateTime@@XZ
        590  24D 00085027 ?getOcurrenceTime@AeEvent@SoftingOPCToolboxClient@@QAE?AVDateTime@@XZ
        591  24E 000859AF ?getOpcSpecification@ServerBrowserData@SoftingOPCToolboxClient@@QAE?AW4tagEnumOPCSpecification@@XZ
        592  24F 000843C5 ?getOptimizeForSpeed@Application@SoftingOPCToolboxServer@@QBEHXZ
        593  250 0008244E ?getParent@AddressSpaceRoot@SoftingOPCToolboxServer@@MAEPAVAddressSpaceElement@2@K@Z
        594  251 00085AA9 ?getParent@AddressSpaceRoot@SoftingOPCToolboxServer@@UAEPAVAddressSpaceElement@2@XZ
        595  252 00085090 ?getParent@AeAddressSpaceElement@SoftingOPCToolboxServer@@UAEPAVAddressSpaceElement@2@XZ
        596  253 0007F8C0 ?getParent@DaAddressSpaceElement@SoftingOPCToolboxServer@@UAEPAVAddressSpaceElement@2@XZ
        597  254 000830D8 ?getParentHandle@AddressSpaceElement@SoftingOPCToolboxServer@@IAEKXZ
        598  255 00080144 ?getPatchVersion@Application@SoftingOPCToolboxServer@@QAEFXZ
        599  256 0008339E ?getPath@DaItem@SoftingOPCToolboxClient@@QAE?AV?$basic_string@DU?$char_traits@D@std@@V?$allocator@D@2@@std@@XZ
        600  257 00081EA4 ?getPerformInitialRead@DaSession@SoftingOPCToolboxClient@@UAEHXZ
        601  258 0007F249 ?getProductVersion@ServerStatus@SoftingOPCToolboxClient@@QAEAAV?$basic_string@DU?$char_traits@D@std@@V?$allocator@D@2@@std@@XZ
        602  259 0008235E ?getProgId@ServerBrowserData@SoftingOPCToolboxClient@@QAEAAV?$basic_string@DU?$char_traits@D@std@@V?$allocator@D@2@@std@@XZ
        603  25A 000819FE ?getProgIdAe@Application@SoftingOPCToolboxServer@@QAEAAV?$basic_string@DU?$char_traits@D@std@@V?$allocator@D@2@@std@@XZ
        604  25B 000860EE ?getProgIdDa@Application@SoftingOPCToolboxServer@@QAEAAV?$basic_string@DU?$char_traits@D@std@@V?$allocator@D@2@@std@@XZ
        605  25C 00083EE8 ?getProgIdVersionIndependent@ServerBrowserData@SoftingOPCToolboxClient@@QAEAAV?$basic_string@DU?$char_traits@D@std@@V?$allocator@D@2@@std@@XZ
        606  25D 00080851 ?getPropertyDelimiter@Application@SoftingOPCToolboxServer@@QAEDXZ
        607  25E 00082A66 ?getPropertyId@DaRequest@SoftingOPCToolboxServer@@QAEHXZ
        608  25F 00083A97 ?getPropertyIds@DaGetPropertiesOptions@SoftingOPCToolboxClient@@QAEAAV?$vector@KV?$allocator@K@std@@@std@@XZ
        609  260 0007F492 ?getPropertyNames@DaGetPropertiesOptions@SoftingOPCToolboxClient@@QAEAAV?$vector@V?$basic_string@DU?$char_traits@D@std@@V?$allocator@D@2@@std@@V?$allocator@V?$basic_string@DU?$char_traits@D@std@@V?$allocator@D@2@@std@@@2@@std@@XZ
        610  261 00084D52 ?getQualifiedName@AddressSpaceElement@SoftingOPCToolboxClient@@QAEAAV?$basic_string@DU?$char_traits@D@std@@V?$allocator@D@2@@std@@XZ
        611  262 00084AD2 ?getQuality@AeCondition@SoftingOPCToolboxClient@@QAE?AW4tagEnumQuality@@XZ
        612  263 00084DD9 ?getQuality@AeCondition@SoftingOPCToolboxServer@@QAE?AW4tagEnumQuality@@XZ
        613  264 00082264 ?getQuality@AeConditionState@SoftingOPCToolboxClient@@QAE?AW4tagEnumQuality@@XZ
        614  265 0007FA69 ?getQuality@ValueQT@@QBE?AW4tagEnumQuality@@XZ
        615  266 00085973 ?getRequestHandle@DaRequest@SoftingOPCToolboxServer@@IAEKXZ
        616  267 00080A59 ?getRequestState@DaRequest@SoftingOPCToolboxServer@@QAE?AW4tagEnumRequestState@2@XZ
        617  268 00084393 ?getRequestTimeout@DaSession@SoftingOPCToolboxClient@@UAEKXZ
        618  269 0007FEC9 ?getRequestedBufferTime@AeSubscription@SoftingOPCToolboxClient@@QAEKXZ
        619  26A 00083F8D ?getRequestedDataType@DaItem@SoftingOPCToolboxClient@@QAEGXZ
        620  26B 000848DE ?getRequestedKeepAliveTime@DaSubscription@SoftingOPCToolboxClient@@QAEKXZ
        621  26C 00080A54 ?getRequestedMaxSize@AeSubscription@SoftingOPCToolboxClient@@QAEKXZ
        622  26D 00084410 ?getRequestedUpdateRate@DaSubscription@SoftingOPCToolboxClient@@QAEKXZ
        623  26E 00084CE9 ?getRequests@DaTransaction@SoftingOPCToolboxServer@@QAEAAV?$vector@PAVDaRequest@SoftingOPCToolboxServer@@V?$allocator@PAVDaRequest@SoftingOPCToolboxServer@@@std@@@std@@XZ
        624  26F 000823C2 ?getResult@DaProperty@SoftingOPCToolboxClient@@QAEJXZ
        625  270 000828E5 ?getResult@DaRequest@SoftingOPCToolboxServer@@QAEJXZ
        626  271 0007F32F ?getRetrieveItemId@DaAddressSpaceElementBrowseOptions@SoftingOPCToolboxClient@@QAEHXZ
        627  272 0008185F ?getReturnProperties@DaAddressSpaceElementBrowseOptions@SoftingOPCToolboxClient@@QAEHXZ
        628  273 000819B8 ?getReturnPropertyValues@DaAddressSpaceElementBrowseOptions@SoftingOPCToolboxClient@@QAEHXZ
        629  274 0007FD43 ?getReturnedAttributes@AeSubscription@SoftingOPCToolboxClient@@QAE?AV?$vector@PAVAeReturnedAttributes@SoftingOPCToolboxClient@@V?$allocator@PAVAeReturnedAttributes@SoftingOPCToolboxClient@@@std@@@std@@XZ
        630  275 00085158 ?getRevisedBufferTime@AeSubscription@SoftingOPCToolboxClient@@QAEKXZ
        631  276 00083B91 ?getRevisedKeepAliveTime@DaSubscription@SoftingOPCToolboxClient@@QAEKXZ
        632  277 0008184B ?getRevisedMaxSize@AeSubscription@SoftingOPCToolboxClient@@QAEKXZ
        633  278 00080E82 ?getRevisedUpdateRate@DaSubscription@SoftingOPCToolboxClient@@QAEKXZ
        634  279 00081175 ?getServerBrowserList@Application@SoftingOPCToolboxClient@@AAEAAV?$map@KPAVServerBrowser@SoftingOPCToolboxClient@@U?$less@K@std@@V?$allocator@U?$pair@$$CBKPAVServerBrowser@SoftingOPCToolboxClient@@@std@@@4@@std@@XZ
        635  27A 000828C7 ?getServiceDescription@Application@SoftingOPCToolboxClient@@QAEAAV?$basic_string@DU?$char_traits@D@std@@V?$allocator@D@2@@std@@XZ
        636  27B 00086085 ?getServiceDescription@Application@SoftingOPCToolboxServer@@QAEAAV?$basic_string@DU?$char_traits@D@std@@V?$allocator@D@2@@std@@XZ
        637  27C 00081620 ?getServiceName@Application@SoftingOPCToolboxClient@@QAEAAV?$basic_string@DU?$char_traits@D@std@@V?$allocator@D@2@@std@@XZ
        638  27D 00083BEB ?getServiceName@Application@SoftingOPCToolboxServer@@QAEAAV?$basic_string@DU?$char_traits@D@std@@V?$allocator@D@2@@std@@XZ
        639  27E 000841AE ?getSession@AeCategory@SoftingOPCToolboxClient@@QAEPAVAeSession@2@XZ
        640  27F 00081C65 ?getSession@Application@SoftingOPCToolboxServer@@QAEPAVDaSession@2@K@Z
        641  280 0008148B ?getSession@DaAddressSpaceElement@SoftingOPCToolboxClient@@QAEPAVDaSession@2@XZ
        642  281 00081ED1 ?getSession@DaTransaction@SoftingOPCToolboxServer@@QAEPAVDaSession@2@XZ
        643  282 00082A6B ?getSessionHandle@DaRequest@SoftingOPCToolboxServer@@IAEKXZ
        644  283 00085A77 ?getSeverity@AeCondition@SoftingOPCToolboxServer@@QAEKXZ
        645  284 0008581F ?getSeverity@AeEvent@SoftingOPCToolboxClient@@QAEKXZ
        646  285 0007FDBB ?getSeverity@AeEvent@SoftingOPCToolboxServer@@QAEKXZ
        647  286 0008013F ?getSeverity@AeSubConditionDefinition@SoftingOPCToolboxServer@@QAEKXZ
        648  287 00086382 ?getSize@Variant@@QAEKXZ
        649  288 00083EB1 ?getSize@Variant@@SAKG@Z
        650  289 00082976 ?getSource@AeEvent@SoftingOPCToolboxServer@@QAEAAV?$basic_string@DU?$char_traits@D@std@@V?$allocator@D@2@@std@@XZ
        651  28A 000839A2 ?getSourcePath@AeCondition@SoftingOPCToolboxServer@@QAEAAV?$basic_string@DU?$char_traits@D@std@@V?$allocator@D@2@@std@@XZ
        652  28B 00084EE7 ?getSourcePath@AeEvent@SoftingOPCToolboxClient@@QAEAAV?$basic_string@DU?$char_traits@D@std@@V?$allocator@D@2@@std@@XZ
        653  28C 00080D7E ?getStartTime@ServerStatus@SoftingOPCToolboxClient@@QAE?AVDateTime@@XZ
        654  28D 0007F4B5 ?getState@AeCondition@SoftingOPCToolboxClient@@QAE?AW4tagEnumConditionState@@XZ
        655  28E 000852AC ?getState@AeConditionState@SoftingOPCToolboxClient@@QAE?AW4tagEnumConditionState@@XZ
        656  28F 00083A7E ?getState@ServerStatus@SoftingOPCToolboxClient@@QAEKXZ
        657  290 00084956 ?getStateChange@AeCondition@SoftingOPCToolboxServer@@QAE?AW4tagEnumConditionState@@XZ
        658  291 00085CE3 ?getStatus@AeSession@SoftingOPCToolboxClient@@UAEJAAVServerStatus@2@PAVExecutionOptions@2@@Z
        659  292 00085EAF ?getStatus@DaSession@SoftingOPCToolboxClient@@UAEJAAVServerStatus@2@PAVExecutionOptions@2@@Z
        660  293 0007FA78 ?getStatusInfo@ServerStatus@SoftingOPCToolboxClient@@QAEAAV?$basic_string@DU?$char_traits@D@std@@V?$allocator@D@2@@std@@XZ
        661  294 00081D37 ?getStringBasedObjectDataExpiry@Application@SoftingOPCToolboxServer@@QAEKXZ
        662  295 000851C1 ?getSubConditionActiveTime@AeConditionState@SoftingOPCToolboxClient@@QAE?AVDateTime@@XZ
        663  296 0007FB31 ?getSubConditionDefinition@AeCategory@SoftingOPCToolboxServer@@UAEPAVAeSubConditionDefinition@2@AAV?$basic_string@DU?$char_traits@D@std@@V?$allocator@D@2@@std@@0@Z
        664  297 00080CAC ?getSubConditionDefinition@AeConditionDefinition@SoftingOPCToolboxServer@@QAEPAVAeSubConditionDefinition@2@AAV?$basic_string@DU?$char_traits@D@std@@V?$allocator@D@2@@std@@@Z
        665  298 00084834 ?getSubConditionName@AeCondition@SoftingOPCToolboxClient@@QAEAAV?$basic_string@DU?$char_traits@D@std@@V?$allocator@D@2@@std@@XZ
        666  299 00083FC9 ?getSubConditions@AeConditionDefinition@SoftingOPCToolboxServer@@QAEAAV?$map@V?$basic_string@DU?$char_traits@D@std@@V?$allocator@D@2@@std@@PAVAeSubConditionDefinition@SoftingOPCToolboxServer@@U?$less@V?$basic_string@DU?$char_traits@D@std@@V?$allocator@D@2@@std@@@2@V?$allocator@U?$pair@$$CBV?$basic_string@DU?$char_traits@D@std@@V?$allocator@D@2@@std@@PAVAeSubConditionDefinition@SoftingOPCToolboxServer@@@std@@@2@@std@@XZ
        667  29A 00081675 ?getSubConditionsDefinitions@AeConditionState@SoftingOPCToolboxClient@@QAEAAV?$vector@V?$basic_string@DU?$char_traits@D@std@@V?$allocator@D@2@@std@@V?$allocator@V?$basic_string@DU?$char_traits@D@std@@V?$allocator@D@2@@std@@@2@@std@@XZ
        668  29B 0007F3D9 ?getSubConditionsDescriptions@AeConditionState@SoftingOPCToolboxClient@@QAEAAV?$vector@V?$basic_string@DU?$char_traits@D@std@@V?$allocator@D@2@@std@@V?$allocator@V?$basic_string@DU?$char_traits@D@std@@V?$allocator@D@2@@std@@@2@@std@@XZ
        669  29C 000803DD ?getSubConditionsNames@AeConditionState@SoftingOPCToolboxClient@@QAEAAV?$vector@V?$basic_string@DU?$char_traits@D@std@@V?$allocator@D@2@@std@@V?$allocator@V?$basic_string@DU?$char_traits@D@std@@V?$allocator@D@2@@std@@@2@@std@@XZ
        670  29D 00081FEE ?getSubConditionsSeverities@AeConditionState@SoftingOPCToolboxClient@@QAEAAV?$vector@KV?$allocator@K@std@@@std@@XZ
        671  29E 00081C83 ?getSubscriptionList@AeSession@SoftingOPCToolboxClient@@QAE?AV?$vector@PAVAeSubscription@SoftingOPCToolboxClient@@V?$allocator@PAVAeSubscription@SoftingOPCToolboxClient@@@std@@@std@@XZ
        672  29F 000838F8 ?getSubscriptionList@DaSession@SoftingOPCToolboxClient@@QAE?AV?$vector@PAVDaSubscription@SoftingOPCToolboxClient@@V?$allocator@PAVDaSubscription@SoftingOPCToolboxClient@@@std@@@std@@XZ
        673  2A0 00083DA3 ?getSupportDisableConditions@Application@SoftingOPCToolboxServer@@QAEEXZ
        674  2A1 00083F65 ?getSupportedLcIds@ServerStatus@SoftingOPCToolboxClient@@QAEAAV?$vector@V?$basic_string@DU?$char_traits@D@std@@V?$allocator@D@2@@std@@V?$allocator@V?$basic_string@DU?$char_traits@D@std@@V?$allocator@D@2@@std@@@2@@std@@XZ
        675  2A2 00081472 ?getSupportedOpcSpecification@DaSession@SoftingOPCToolboxClient@@UAE?AW4tagEnumOPCSpecification@@XZ
        676  2A3 000827D7 ?getTargetState@ObjectSpaceElement@SoftingOPCToolboxClient@@UAE?AW4tagEnumObjectState@2@XZ
        677  2A4 000823F4 ?getTimeBias@DaSubscription@SoftingOPCToolboxClient@@QAEJXZ
        678  2A5 00080D01 ?getTimeStamp@ValueQT@@QBE?AVDateTime@@XZ
        679  2A6 00081391 ?getTpPort@Application@SoftingOPCToolboxServer@@QAEGXZ
        680  2A7 000852ED ?getTransactionKey@DaRequest@SoftingOPCToolboxServer@@QAEKXZ
        681  2A8 000809EB ?getTransactionType@DaRequest@SoftingOPCToolboxServer@@QAE?AW4tagEnumTransactionType@2@XZ
        682  2A9 000836C8 ?getType@AeEvent@SoftingOPCToolboxServer@@QAE?AW4tagEnumEventType@@XZ
        683  2AA 00080347 ?getType@DaSession@SoftingOPCToolboxServer@@QAE?AW4tagEnumSessionType@2@XZ
        684  2AB 0007F631 ?getType@DaTransaction@SoftingOPCToolboxServer@@QAE?AW4tagEnumTransactionType@2@XZ
        685  2AC 00084D7F ?getUpdateAttributesBehavior@Application@SoftingOPCToolboxClient@@QAE?AW4tagEnumUpdateAttributesBehavior@2@XZ
        686  2AD 0007F41A ?getUpdateRate@DaAddressSpaceElement@SoftingOPCToolboxServer@@QAEHXZ
        687  2AE 00083D17 ?getUrl@AeSession@SoftingOPCToolboxClient@@UAE?AV?$basic_string@DU?$char_traits@D@std@@V?$allocator@D@2@@std@@XZ
        688  2AF 00081328 ?getUrl@DaSession@SoftingOPCToolboxClient@@UAE?AV?$basic_string@DU?$char_traits@D@std@@V?$allocator@D@2@@std@@XZ
        689  2B0 00082BBA ?getUrl@ServerBrowserData@SoftingOPCToolboxClient@@QAEAAV?$basic_string@DU?$char_traits@D@std@@V?$allocator@D@2@@std@@XZ
        690  2B1 0007FC85 ?getUrlDa@Application@SoftingOPCToolboxServer@@QAEAAV?$basic_string@DU?$char_traits@D@std@@V?$allocator@D@2@@std@@XZ
        691  2B2 00084A1E ?getUserData@AddressSpaceElement@SoftingOPCToolboxServer@@UAEKXZ
        692  2B3 00084D8E ?getUserData@AeCondition@SoftingOPCToolboxServer@@QAEKXZ
        693  2B4 0008475D ?getUserData@ObjectSpaceElement@SoftingOPCToolboxClient@@UAEKXZ
        694  2B5 00083FBF ?getUserData@ServerBrowser@SoftingOPCToolboxClient@@UAEKXZ
        695  2B6 00082638 ?getValid@ObjectSpaceElement@SoftingOPCToolboxClient@@UAEHXZ
        696  2B7 00085739 ?getValue@DaConstantProperty@SoftingOPCToolboxServer@@QAEAAVValueQT@@XZ
        697  2B8 0008541E ?getValue@DaItem@SoftingOPCToolboxClient@@QBEABVVariant@@XZ
        698  2B9 0007F2F8 ?getValue@DaRequest@SoftingOPCToolboxServer@@QAEPAVValueQT@@XZ
        699  2BA 00085E73 ?getValueQT@DaItem@SoftingOPCToolboxClient@@QAEPAVValueQT@@XZ
        700  2BB 0007FDFC ?getValueQT@DaProperty@SoftingOPCToolboxClient@@QAEAAVValueQT@@XZ
        701  2BC 00081364 ?getVendorFilter@DaAddressSpaceElementBrowseOptions@SoftingOPCToolboxClient@@QAEAAV?$basic_string@DU?$char_traits@D@std@@V?$allocator@D@2@@std@@XZ
        702  2BD 00082539 ?getVendorInfo@Application@SoftingOPCToolboxServer@@QAEAAV?$basic_string@DU?$char_traits@D@std@@V?$allocator@D@2@@std@@XZ
        703  2BE 0007FDD9 ?getVendorInfo@ServerStatus@SoftingOPCToolboxClient@@QAEAAV?$basic_string@DU?$char_traits@D@std@@V?$allocator@D@2@@std@@XZ
        704  2BF 000837A9 ?getVerIndProgIdAe@Application@SoftingOPCToolboxServer@@QAEAAV?$basic_string@DU?$char_traits@D@std@@V?$allocator@D@2@@std@@XZ
        705  2C0 00083F88 ?getVerIndProgIdDa@Application@SoftingOPCToolboxServer@@QAEAAV?$basic_string@DU?$char_traits@D@std@@V?$allocator@D@2@@std@@XZ
        706  2C1 000835B0 ?getVersionOtb@Application@SoftingOPCToolboxClient@@QAEGXZ
        707  2C2 00085BCB ?getVersionOtb@Application@SoftingOPCToolboxServer@@QAEGXZ
        708  2C3 000830F6 ?getWebAdministratorPassword@Application@SoftingOPCToolboxServer@@QAEAAV?$basic_string@DU?$char_traits@D@std@@V?$allocator@D@2@@std@@XZ
        709  2C4 0008242B ?getWebOperatorPassword@Application@SoftingOPCToolboxServer@@QAEAAV?$basic_string@DU?$char_traits@D@std@@V?$allocator@D@2@@std@@XZ
        710  2C5 0008185A ?getWebRootDirectory@Application@SoftingOPCToolboxServer@@QAEAAV?$basic_string@DU?$char_traits@D@std@@V?$allocator@D@2@@std@@XZ
        711  2C6 00085EB9 ?getWebRootFile@Application@SoftingOPCToolboxServer@@QAEAAV?$basic_string@DU?$char_traits@D@std@@V?$allocator@D@2@@std@@XZ
        712  2C7 0007F6B8 ?getWebTemplate@Application@SoftingOPCToolboxServer@@QAEPAVWebTemplate@2@XZ
        713  2C8 00082C28 ?getWhatPropertyData@DaGetPropertiesOptions@SoftingOPCToolboxClient@@QAE?AW4tagEnumPropertyData@2@XZ
        714  2C9 00081A58 ?getXmldaGetStatusInterval@Application@SoftingOPCToolboxClient@@QBEKXZ
        715  2CA 0008446A ?handleAcknowledgeAeConditionsCompleted@AeSession@SoftingOPCToolboxClient@@UAEXKAAV?$basic_string@DU?$char_traits@D@std@@V?$allocator@D@2@@std@@0AAV?$vector@PAVAeCondition@SoftingOPCToolboxClient@@V?$allocator@PAVAeCondition@SoftingOPCToolboxClient@@@std@@@4@AAV?$vector@JV?$allocator@J@std@@@4@J@Z
        716  2CB 00081AF3 ?handleAeConditionsChanged@AeSubscription@SoftingOPCToolboxClient@@UAEXABV?$vector@PAVAeCondition@SoftingOPCToolboxClient@@V?$allocator@PAVAeCondition@SoftingOPCToolboxClient@@@std@@@std@@@Z
        717  2CC 00086265 ?handleAeEventsReceived@AeSubscription@SoftingOPCToolboxClient@@UAEXHHABV?$vector@PAVAeEvent@SoftingOPCToolboxClient@@V?$allocator@PAVAeEvent@SoftingOPCToolboxClient@@@std@@@std@@@Z
        718  2CD 0007F9EC ?handleBrowseCompleted@AeSession@SoftingOPCToolboxClient@@UAEXKKAAV?$vector@PAVAddressSpaceElement@SoftingOPCToolboxClient@@V?$allocator@PAVAddressSpaceElement@SoftingOPCToolboxClient@@@std@@@std@@J@Z
        719  2CE 00083119 ?handleBrowseCompleted@DaSession@SoftingOPCToolboxClient@@UAEXKKAAV?$basic_string@DU?$char_traits@D@std@@V?$allocator@D@2@@std@@0AAV?$vector@PAVDaAddressSpaceElement@SoftingOPCToolboxClient@@V?$allocator@PAVDaAddressSpaceElement@SoftingOPCToolboxClient@@@std@@@4@J@Z
        720  2CF 00080455 ?handleBrowseServersCompleted@ServerBrowser@SoftingOPCToolboxClient@@UAEXKAAV?$basic_string@DU?$char_traits@D@std@@V?$allocator@D@2@@std@@AAV?$vector@PAVServerBrowserData@SoftingOPCToolboxClient@@V?$allocator@PAVServerBrowserData@SoftingOPCToolboxClient@@@std@@@4@J@Z
        721  2D0 000853EC ?handleCancelRefreshAeConditionsCompleted@AeSubscription@SoftingOPCToolboxClient@@UAEXKJ@Z
        722  2D1 00081616 ?handleClientNameChanged@DaSession@SoftingOPCToolboxServer@@UAEXXZ
        723  2D2 00081AD0 ?handleConnected@DaSession@SoftingOPCToolboxServer@@UAEXXZ
        724  2D3 000825DE ?handleDataChanged@DaSubscription@SoftingOPCToolboxClient@@UAEXABV?$vector@PAVDaItem@SoftingOPCToolboxClient@@V?$allocator@PAVDaItem@SoftingOPCToolboxClient@@@std@@@std@@ABV?$vector@PAVValueQT@@V?$allocator@PAVValueQT@@@std@@@4@ABV?$vector@JV?$allocator@J@std@@@4@@Z
        725  2D4 000833A8 ?handleDataChangedEx@DaSubscription@SoftingOPCToolboxClient@@UAEXKABV?$vector@PAVDaItem@SoftingOPCToolboxClient@@V?$allocator@PAVDaItem@SoftingOPCToolboxClient@@@std@@@std@@ABV?$vector@PAVValueQT@@V?$allocator@PAVValueQT@@@std@@@4@ABV?$vector@JV?$allocator@J@std@@@4@@Z
        726  2D5 000811CA ?handleDisconnected@DaSession@SoftingOPCToolboxServer@@UAEXXZ
        727  2D6 000807C0 ?handleEnableAeConditionsByAreaCompleted@AeSession@SoftingOPCToolboxClient@@UAEXKHAAV?$basic_string@DU?$char_traits@D@std@@V?$allocator@D@2@@std@@J@Z
        728  2D7 00082D8B ?handleEnableAeConditionsBySourceCompleted@AeSession@SoftingOPCToolboxClient@@UAEXKHAAV?$basic_string@DU?$char_traits@D@std@@V?$allocator@D@2@@std@@J@Z
        729  2D8 00081BCF ?handleGetAeConditionStateCompleted@AeSession@SoftingOPCToolboxClient@@UAEXKAAV?$basic_string@DU?$char_traits@D@std@@V?$allocator@D@2@@std@@0AAV?$vector@KV?$allocator@K@std@@@4@AAVAeConditionState@2@J@Z
        730  2D9 0007FB4A ?handleGetAttributesFromServerCompleted@ObjectSpaceElement@SoftingOPCToolboxClient@@UAEXKAAV?$vector@W4tagEnumObjectAttribute@SoftingOPCToolboxClient@@V?$allocator@W4tagEnumObjectAttribute@SoftingOPCToolboxClient@@@std@@@std@@AAV?$vector@JV?$allocator@J@std@@@4@J@Z
        731  2DA 00082ECB ?handleGetDaItemAttributesFromServerCompleted@DaSubscription@SoftingOPCToolboxClient@@UAEXKAAV?$vector@PAVDaItem@SoftingOPCToolboxClient@@V?$allocator@PAVDaItem@SoftingOPCToolboxClient@@@std@@@std@@AAV?$vector@W4tagEnumObjectAttribute@SoftingOPCToolboxClient@@V?$allocator@W4tagEnumObjectAttribute@SoftingOPCToolboxClient@@@std@@@4@AAV?$vector@JV?$allocator@J@std@@@4@J@Z
        732  2DB 000804F5 ?handleGetDaPropertiesCompleted@DaSession@SoftingOPCToolboxClient@@UAEXKKAAV?$basic_string@DU?$char_traits@D@std@@V?$allocator@D@2@@std@@0AAV?$vector@PAVDaProperty@SoftingOPCToolboxClient@@V?$allocator@PAVDaProperty@SoftingOPCToolboxClient@@@std@@@4@J@Z
        733  2DC 0008450F ?handleGetErrorStringCompleted@AeSession@SoftingOPCToolboxClient@@UAEXKJAAV?$basic_string@DU?$char_traits@D@std@@V?$allocator@D@2@@std@@J@Z
        734  2DD 000863AF ?handleGetErrorStringCompleted@DaSession@SoftingOPCToolboxClient@@UAEXKJAAV?$basic_string@DU?$char_traits@D@std@@V?$allocator@D@2@@std@@J@Z
        735  2DE 00080C34 ?handleGetStatusCompleted@AeSession@SoftingOPCToolboxClient@@UAEXKAAVServerStatus@2@J@Z
        736  2DF 00084735 ?handleGetStatusCompleted@DaSession@SoftingOPCToolboxClient@@UAEXKAAVServerStatus@2@J@Z
        737  2E0 0008311E ?handleLogoffCompleted@AeSession@SoftingOPCToolboxClient@@UAEXKJ@Z
        738  2E1 0007FA4B ?handleLogoffCompleted@DaSession@SoftingOPCToolboxClient@@UAEXKJ@Z
        739  2E2 0007F4CE ?handleLogonCompleted@AeSession@SoftingOPCToolboxClient@@UAEXKAAV?$basic_string@DU?$char_traits@D@std@@V?$allocator@D@2@@std@@0J@Z
        740  2E3 00080E32 ?handleLogonCompleted@DaSession@SoftingOPCToolboxClient@@UAEXKAAV?$basic_string@DU?$char_traits@D@std@@V?$allocator@D@2@@std@@0J@Z
        741  2E4 0008211F ?handlePerformStateTransitionCompleted@ObjectSpaceElement@SoftingOPCToolboxClient@@UAEXKJ@Z
        742  2E5 0007F550 ?handleQueryAeAttributesCompleted@AeCategory@SoftingOPCToolboxClient@@QAEXKKAAV?$vector@PAVAeAttribute@SoftingOPCToolboxClient@@V?$allocator@PAVAeAttribute@SoftingOPCToolboxClient@@@std@@@std@@J@Z
        743  2E6 00081459 ?handleQueryAeCategoriesCompleted@AeSession@SoftingOPCToolboxClient@@UAEXKAAV?$vector@PAVAeCategory@SoftingOPCToolboxClient@@V?$allocator@PAVAeCategory@SoftingOPCToolboxClient@@@std@@@std@@J@Z
        744  2E7 000847B2 ?handleQueryAeConditionNamesCompleted@AeCategory@SoftingOPCToolboxClient@@UAEXKKAAV?$vector@V?$basic_string@DU?$char_traits@D@std@@V?$allocator@D@2@@std@@V?$allocator@V?$basic_string@DU?$char_traits@D@std@@V?$allocator@D@2@@std@@@2@@std@@J@Z
        745  2E8 00081E22 ?handleQueryAeSourceConditionsCompleted@AeSession@SoftingOPCToolboxClient@@UAEXKAAV?$basic_string@DU?$char_traits@D@std@@V?$allocator@D@2@@std@@AAV?$vector@V?$basic_string@DU?$char_traits@D@std@@V?$allocator@D@2@@std@@V?$allocator@V?$basic_string@DU?$char_traits@D@std@@V?$allocator@D@2@@std@@@2@@4@J@Z
        746  2E9 0008132D ?handleQueryAeSubConditionNamesCompleted@AeCategory@SoftingOPCToolboxClient@@UAEXKAAV?$basic_string@DU?$char_traits@D@std@@V?$allocator@D@2@@std@@AAV?$vector@V?$basic_string@DU?$char_traits@D@std@@V?$allocator@D@2@@std@@V?$allocator@V?$basic_string@DU?$char_traits@D@std@@V?$allocator@D@2@@std@@@2@@4@J@Z
        747  2EA 0007F6CC ?handleQueryAvailableAeFiltersCompleted@AeSession@SoftingOPCToolboxClient@@UAEXKW4tagEnumFilterBy@2@J@Z
        748  2EB 00081756 ?handleReadCompleted@DaSession@SoftingOPCToolboxClient@@UAEXKABV?$vector@V?$basic_string@DU?$char_traits@D@std@@V?$allocator@D@2@@std@@V?$allocator@V?$basic_string@DU?$char_traits@D@std@@V?$allocator@D@2@@std@@@2@@std@@0ABV?$vector@PAVValueQT@@V?$allocator@PAVValueQT@@@std@@@4@ABV?$vector@JV?$allocator@J@std@@@4@J@Z
        749  2EC 00081A94 ?handleReadCompleted@DaSubscription@SoftingOPCToolboxClient@@UAEXKABV?$vector@PAVDaItem@SoftingOPCToolboxClient@@V?$allocator@PAVDaItem@SoftingOPCToolboxClient@@@std@@@std@@ABV?$vector@PAVValueQT@@V?$allocator@PAVValueQT@@@std@@@4@ABV?$vector@JV?$allocator@J@std@@@4@J@Z
        750  2ED 000827D2 ?handleReadRequest@DaConstantProperty@SoftingOPCToolboxServer@@UAEXAAVDaRequest@2@@Z
        751  2EE 000800CC ?handleReadRequest@DaProperty@SoftingOPCToolboxServer@@UAEXAAVDaRequest@2@@Z
        752  2EF 00082B3D ?handleReadRequests@DaTransaction@SoftingOPCToolboxServer@@UAEJXZ
        753  2F0 00080C57 ?handleRefreshAeConditionsCompleted@AeSubscription@SoftingOPCToolboxClient@@UAEXKJ@Z
        754  2F1 00082769 ?handleSetAttributesToServerCompleted@ObjectSpaceElement@SoftingOPCToolboxClient@@UAEXKAAV?$vector@W4tagEnumObjectAttribute@SoftingOPCToolboxClient@@V?$allocator@W4tagEnumObjectAttribute@SoftingOPCToolboxClient@@@std@@@std@@AAV?$vector@JV?$allocator@J@std@@@4@J@Z
        755  2F2 000822CD ?handleSetDaItemAttributesToServerCompleted@DaSubscription@SoftingOPCToolboxClient@@UAEXKAAV?$vector@PAVDaItem@SoftingOPCToolboxClient@@V?$allocator@PAVDaItem@SoftingOPCToolboxClient@@@std@@@std@@AAV?$vector@W4tagEnumObjectAttribute@SoftingOPCToolboxClient@@V?$allocator@W4tagEnumObjectAttribute@SoftingOPCToolboxClient@@@std@@@4@AAV?$vector@JV?$allocator@J@std@@@4@J@Z
        756  2F3 00083A42 ?handleShutdownRequest@AeSession@SoftingOPCToolboxClient@@UAEEABV?$basic_string@DU?$char_traits@D@std@@V?$allocator@D@2@@std@@@Z
        757  2F4 000863F0 ?handleShutdownRequest@DaSession@SoftingOPCToolboxClient@@UAEEABV?$basic_string@DU?$char_traits@D@std@@V?$allocator@D@2@@std@@@Z
        758  2F5 0007F67C ?handleStateChangeCompleted@ObjectSpaceElement@SoftingOPCToolboxClient@@UAEXW4tagEnumObjectState@2@@Z
        759  2F6 00083AD3 ?handleValidateDaItemsCompleted@DaSubscription@SoftingOPCToolboxClient@@UAEXKAAV?$vector@PAVDaItem@SoftingOPCToolboxClient@@V?$allocator@PAVDaItem@SoftingOPCToolboxClient@@@std@@@std@@AAV?$vector@JV?$allocator@J@std@@@4@@Z
        760  2F7 00084A5A ?handleValueChanged@DaItem@SoftingOPCToolboxClient@@UAEXABVValueQT@@J@Z
        761  2F8 00082999 ?handleWebTemplate@WebTemplate@SoftingOPCToolboxServer@@UAEJPADKPAPADAAV?$basic_string@DU?$char_traits@D@std@@V?$allocator@D@2@@std@@@Z
        762  2F9 00084564 ?handleWriteCompleted@DaSession@SoftingOPCToolboxClient@@UAEXKABV?$vector@V?$basic_string@DU?$char_traits@D@std@@V?$allocator@D@2@@std@@V?$allocator@V?$basic_string@DU?$char_traits@D@std@@V?$allocator@D@2@@std@@@2@@std@@0ABV?$vector@PAVValueQT@@V?$allocator@PAVValueQT@@@std@@@4@ABV?$vector@JV?$allocator@J@std@@@4@J@Z
        763  2FA 00084CCB ?handleWriteCompleted@DaSubscription@SoftingOPCToolboxClient@@UAEXKABV?$vector@PAVDaItem@SoftingOPCToolboxClient@@V?$allocator@PAVDaItem@SoftingOPCToolboxClient@@@std@@@std@@ABV?$vector@PAVValueQT@@V?$allocator@PAVValueQT@@@std@@@4@ABV?$vector@JV?$allocator@J@std@@@4@J@Z
        764  2FB 00082AA2 ?handleWriteRequest@DaProperty@SoftingOPCToolboxServer@@UAEXAAVDaRequest@2@@Z
        765  2FC 0008612A ?handleWriteRequests@DaTransaction@SoftingOPCToolboxServer@@UAEJXZ
        766  2FD 00080770 ?hour@DateTime@@QAEGXZ
        767  2FE 00084C80 ?hourGMT@DateTime@@QAEGXZ
        768  2FF 000800DB ?init@DateTime@@QAEXXZ
        769  300 00081918 ?init@Variant@@QAEXG@Z
        770  301 0007F0DC ?initArray@Variant@@QAEXGKK@Z
        771  302 00084046 ?initFrom@Variant@@QAEHPBUtagVARIANT@@@Z
        772  303 00082B0B ?initialize@Application@SoftingOPCToolboxClient@@QAEJXZ
        773  304 00081FB7 ?initialize@Application@SoftingOPCToolboxServer@@QAEJPAVCreator@2@@Z
        774  305 00082FBB ?isBranch@AddressSpaceElement@SoftingOPCToolboxClient@@QAE_NXZ
        775  306 00080225 ?isEmpty@DaTransaction@SoftingOPCToolboxServer@@QAEHXZ
        776  307 00083EE3 ?isItem@DaAddressSpaceElement@SoftingOPCToolboxClient@@QAE_NXZ
        777  308 000807CA ?isLeaf@AddressSpaceElement@SoftingOPCToolboxClient@@QAE_NXZ
        778  309 0007F7BC ?isQualitySet@ValueQT@@QAEHXZ
        779  30A 00084B1D ?isSet@DateTime@@QAEHXZ
        780  30B 0007F564 ?isTimeStampSet@ValueQT@@QAEHXZ
        781  30C 0007F4DD ?lock@Mutex@@QAEHK@Z
        782  30D 0007FF82 ?logoff@AeSession@SoftingOPCToolboxClient@@UAEJPAVExecutionOptions@2@@Z
        783  30E 000840C8 ?logoff@DaSession@SoftingOPCToolboxClient@@UAEJPAVExecutionOptions@2@@Z
        784  30F 00085A54 ?logoff@DaSession@SoftingOPCToolboxServer@@UAEJXZ
        785  310 00081C1A ?logon@AeSession@SoftingOPCToolboxClient@@UAEJAAV?$basic_string@DU?$char_traits@D@std@@V?$allocator@D@2@@std@@0PAVExecutionOptions@2@@Z
        786  311 000821DD ?logon@DaSession@SoftingOPCToolboxClient@@UAEJV?$basic_string@DU?$char_traits@D@std@@V?$allocator@D@2@@std@@0PAVExecutionOptions@2@@Z
        787  312 000843C0 ?logon@DaSession@SoftingOPCToolboxServer@@UAEJAAV?$basic_string@DU?$char_traits@D@std@@V?$allocator@D@2@@std@@0@Z
        788  313 001D0008 ?m_currentHash@AddressSpaceElement@SoftingOPCToolboxServer@@0KA
        789  314 001D1000 ?m_instance@Application@SoftingOPCToolboxClient@@0PAV12@A
        790  315 001D1098 ?m_instance@Application@SoftingOPCToolboxServer@@0PAV12@A
        791  316 001D0004 ?m_objectIndex@ObjectSpaceElement@SoftingOPCToolboxClient@@0KA
        792  317 001D1090 ?m_objectIndex@ServerBrowser@SoftingOPCToolboxClient@@0KA
        793  318 00080626 ?markRequestCompletedInternally@Application@SoftingOPCToolboxServer@@AAEJK@Z
        794  319 00083D30 ?milliSecond@DateTime@@QAEKXZ
        795  31A 000830EC ?milliSecondGMT@DateTime@@QAEKXZ
        796  31B 00080077 ?minute@DateTime@@QAEGXZ
        797  31C 00080301 ?minuteGMT@DateTime@@QAEGXZ
        798  31D 00082BF6 ?month@DateTime@@QAEGXZ
        799  31E 00082197 ?monthGMT@DateTime@@QAEGXZ
        800  31F 000809FF ?now@DateTime@@QAEXXZ
        801  320 0008464F ?onAcknowledgeAeConditions@AeSession@SoftingOPCToolboxClient@@AAEXKAAV?$basic_string@DU?$char_traits@D@std@@V?$allocator@D@2@@std@@0AAV?$vector@PAVAeCondition@SoftingOPCToolboxClient@@V?$allocator@PAVAeCondition@SoftingOPCToolboxClient@@@std@@@4@AAV?$vector@JV?$allocator@J@std@@@4@J@Z
        802  321 000855A4 ?onAeConditionsChanged@AeSubscription@SoftingOPCToolboxClient@@AAEXABV?$vector@PAVAeCondition@SoftingOPCToolboxClient@@V?$allocator@PAVAeCondition@SoftingOPCToolboxClient@@@std@@@std@@@Z
        803  322 000803E2 ?onAeEventsReceived@AeSubscription@SoftingOPCToolboxClient@@AAEXHHABV?$vector@PAVAeEvent@SoftingOPCToolboxClient@@V?$allocator@PAVAeEvent@SoftingOPCToolboxClient@@@std@@@std@@@Z
        804  323 00085BC1 ?onBrowse@AeSession@SoftingOPCToolboxClient@@AAEXKKAAV?$vector@PAVAddressSpaceElement@SoftingOPCToolboxClient@@V?$allocator@PAVAddressSpaceElement@SoftingOPCToolboxClient@@@std@@@std@@J@Z
        805  324 00083583 ?onBrowse@DaSession@SoftingOPCToolboxClient@@AAEXKKAAV?$basic_string@DU?$char_traits@D@std@@V?$allocator@D@2@@std@@0AAV?$vector@PAVDaAddressSpaceElement@SoftingOPCToolboxClient@@V?$allocator@PAVDaAddressSpaceElement@SoftingOPCToolboxClient@@@std@@@4@J@Z
        806  325 0008470D ?onBrowseServers@ServerBrowser@SoftingOPCToolboxClient@@AAEXKAAV?$basic_string@DU?$char_traits@D@std@@V?$allocator@D@2@@std@@AAV?$vector@PAVServerBrowserData@SoftingOPCToolboxClient@@V?$allocator@PAVServerBrowserData@SoftingOPCToolboxClient@@@std@@@4@J@Z
        807  326 000847EE ?onCancelRefreshAeConditions@AeSubscription@SoftingOPCToolboxClient@@AAEXKJ@Z
        808  327 0007F03C ?onDataChange@DaSubscription@SoftingOPCToolboxClient@@AAEXKABV?$vector@PAVDaItem@SoftingOPCToolboxClient@@V?$allocator@PAVDaItem@SoftingOPCToolboxClient@@@std@@@std@@ABV?$vector@PAVValueQT@@V?$allocator@PAVValueQT@@@std@@@4@ABV?$vector@JV?$allocator@J@std@@@4@@Z
        809  328 000856A3 ?onEnableAeConditionsByArea@AeSession@SoftingOPCToolboxClient@@AAEXKHAAV?$basic_string@DU?$char_traits@D@std@@V?$allocator@D@2@@std@@J@Z
        810  329 000851F3 ?onEnableAeConditionsBySource@AeSession@SoftingOPCToolboxClient@@AAEXKHAAV?$basic_string@DU?$char_traits@D@std@@V?$allocator@D@2@@std@@J@Z
        811  32A 000849BA ?onGetAeConditionState@AeSession@SoftingOPCToolboxClient@@AAEXKAAV?$basic_string@DU?$char_traits@D@std@@V?$allocator@D@2@@std@@0AAV?$vector@KV?$allocator@K@std@@@4@AAVAeConditionState@2@J@Z
        812  32B 0008630A ?onGetAttributesFromServer@ObjectSpaceElement@SoftingOPCToolboxClient@@AAEXKAAV?$vector@W4tagEnumObjectAttribute@SoftingOPCToolboxClient@@V?$allocator@W4tagEnumObjectAttribute@SoftingOPCToolboxClient@@@std@@@std@@AAV?$vector@JV?$allocator@J@std@@@4@J@Z
        813  32C 00081FCB ?onGetDaItemAttributesFromServer@DaSubscription@SoftingOPCToolboxClient@@AAEXKAAV?$vector@PAVDaItem@SoftingOPCToolboxClient@@V?$allocator@PAVDaItem@SoftingOPCToolboxClient@@@std@@@std@@AAV?$vector@W4tagEnumObjectAttribute@SoftingOPCToolboxClient@@V?$allocator@W4tagEnumObjectAttribute@SoftingOPCToolboxClient@@@std@@@4@AAV?$vector@JV?$allocator@J@std@@@4@J@Z
        814  32D 00082C7D ?onGetDaProperties@DaSession@SoftingOPCToolboxClient@@AAEXKKAAV?$basic_string@DU?$char_traits@D@std@@V?$allocator@D@2@@std@@0AAV?$vector@PAVDaProperty@SoftingOPCToolboxClient@@V?$allocator@PAVDaProperty@SoftingOPCToolboxClient@@@std@@@4@J@Z
        815  32E 000816FC ?onGetErrorString@AeSession@SoftingOPCToolboxClient@@AAEXKJAAV?$basic_string@DU?$char_traits@D@std@@V?$allocator@D@2@@std@@J@Z
        816  32F 00084280 ?onGetErrorString@DaSession@SoftingOPCToolboxClient@@AAEXKJAAV?$basic_string@DU?$char_traits@D@std@@V?$allocator@D@2@@std@@J@Z
        817  330 00083BCD ?onGetServerStatus@AeSession@SoftingOPCToolboxClient@@AAEXKAAVServerStatus@2@J@Z
        818  331 00085301 ?onGetServerStatus@DaSession@SoftingOPCToolboxClient@@AAEXKAAVServerStatus@2@J@Z
        819  332 0007FF0A ?onLogoff@AeSession@SoftingOPCToolboxClient@@AAEXKJ@Z
        820  333 00081EF9 ?onLogoff@DaSession@SoftingOPCToolboxClient@@AAEXKJ@Z
        821  334 0007F7A8 ?onLogon@AeSession@SoftingOPCToolboxClient@@AAEXKAAV?$basic_string@DU?$char_traits@D@std@@V?$allocator@D@2@@std@@0J@Z
        822  335 000828FE ?onLogon@DaSession@SoftingOPCToolboxClient@@AAEXKAAV?$basic_string@DU?$char_traits@D@std@@V?$allocator@D@2@@std@@0J@Z
        823  336 00083542 ?onPerformStateTransition@ObjectSpaceElement@SoftingOPCToolboxClient@@AAEXKJ@Z
        824  337 000847DA ?onQueryAeAttributes@AeCategory@SoftingOPCToolboxClient@@AAEXKKAAV?$vector@PAVAeAttribute@SoftingOPCToolboxClient@@V?$allocator@PAVAeAttribute@SoftingOPCToolboxClient@@@std@@@std@@J@Z
        825  338 00080D97 ?onQueryAeCategories@AeSession@SoftingOPCToolboxClient@@AAEXKAAV?$vector@PAVAeCategory@SoftingOPCToolboxClient@@V?$allocator@PAVAeCategory@SoftingOPCToolboxClient@@@std@@@std@@J@Z
        826  339 0008115C ?onQueryAeConditionNames@AeCategory@SoftingOPCToolboxClient@@AAEXKKAAV?$vector@V?$basic_string@DU?$char_traits@D@std@@V?$allocator@D@2@@std@@V?$allocator@V?$basic_string@DU?$char_traits@D@std@@V?$allocator@D@2@@std@@@2@@std@@J@Z
        827  33A 00084528 ?onQueryAeSourceConditions@AeSession@SoftingOPCToolboxClient@@AAEXKAAV?$basic_string@DU?$char_traits@D@std@@V?$allocator@D@2@@std@@AAV?$vector@V?$basic_string@DU?$char_traits@D@std@@V?$allocator@D@2@@std@@V?$allocator@V?$basic_string@DU?$char_traits@D@std@@V?$allocator@D@2@@std@@@2@@4@J@Z
        828  33B 00083D35 ?onQueryAeSubConditionNames@AeCategory@SoftingOPCToolboxClient@@AAEXKAAV?$basic_string@DU?$char_traits@D@std@@V?$allocator@D@2@@std@@AAV?$vector@V?$basic_string@DU?$char_traits@D@std@@V?$allocator@D@2@@std@@V?$allocator@V?$basic_string@DU?$char_traits@D@std@@V?$allocator@D@2@@std@@@2@@4@J@Z
        829  33C 0008027F ?onQueryAvailableAeFilters@AeSession@SoftingOPCToolboxClient@@AAEXKW4tagEnumFilterBy@2@J@Z
        830  33D 0007F622 ?onReadComplete@DaSession@SoftingOPCToolboxClient@@AAEXKABV?$vector@V?$basic_string@DU?$char_traits@D@std@@V?$allocator@D@2@@std@@V?$allocator@V?$basic_string@DU?$char_traits@D@std@@V?$allocator@D@2@@std@@@2@@std@@0ABV?$vector@PAVValueQT@@V?$allocator@PAVValueQT@@@std@@@4@ABV?$vector@JV?$allocator@J@std@@@4@J@Z
        831  33E 00080649 ?onReadComplete@DaSubscription@SoftingOPCToolboxClient@@AAEXKABV?$vector@PAVDaItem@SoftingOPCToolboxClient@@V?$allocator@PAVDaItem@SoftingOPCToolboxClient@@@std@@@std@@ABV?$vector@PAVValueQT@@V?$allocator@PAVValueQT@@@std@@@4@ABV?$vector@JV?$allocator@J@std@@@4@J@Z
        832  33F 000824C1 ?onRefreshAeConditions@AeSubscription@SoftingOPCToolboxClient@@AAEXKJ@Z
        833  340 000829DA ?onSetAttributesToServer@ObjectSpaceElement@SoftingOPCToolboxClient@@AAEXKAAV?$vector@W4tagEnumObjectAttribute@SoftingOPCToolboxClient@@V?$allocator@W4tagEnumObjectAttribute@SoftingOPCToolboxClient@@@std@@@std@@AAV?$vector@JV?$allocator@J@std@@@4@J@Z
        834  341 0007FBF9 ?onSetDaItemAttributesToServer@DaSubscription@SoftingOPCToolboxClient@@AAEXKAAV?$vector@PAVDaItem@SoftingOPCToolboxClient@@V?$allocator@PAVDaItem@SoftingOPCToolboxClient@@@std@@@std@@AAV?$vector@W4tagEnumObjectAttribute@SoftingOPCToolboxClient@@V?$allocator@W4tagEnumObjectAttribute@SoftingOPCToolboxClient@@@std@@@4@AAV?$vector@JV?$allocator@J@std@@@4@J@Z
        835  342 00085AFE ?onShutdown@AeSession@SoftingOPCToolboxClient@@AAEEABV?$basic_string@DU?$char_traits@D@std@@V?$allocator@D@2@@std@@@Z
        836  343 00085C66 ?onShutdown@DaSession@SoftingOPCToolboxClient@@AAEEABV?$basic_string@DU?$char_traits@D@std@@V?$allocator@D@2@@std@@@Z
        837  344 00082D6D ?onStateChange@ObjectSpaceElement@SoftingOPCToolboxClient@@AAEXW4tagEnumObjectState@2@@Z
        838  345 00082CFF ?onValidateDaItems@DaSubscription@SoftingOPCToolboxClient@@AAEXKAAV?$vector@PAVDaItem@SoftingOPCToolboxClient@@V?$allocator@PAVDaItem@SoftingOPCToolboxClient@@@std@@@std@@AAV?$vector@JV?$allocator@J@std@@@4@@Z
        839  346 00083AA1 ?onValueChange@DaItem@SoftingOPCToolboxClient@@AAEXAAVValueQT@@J@Z
        840  347 0008215B ?onWriteComplete@DaSession@SoftingOPCToolboxClient@@AAEXKABV?$vector@V?$basic_string@DU?$char_traits@D@std@@V?$allocator@D@2@@std@@V?$allocator@V?$basic_string@DU?$char_traits@D@std@@V?$allocator@D@2@@std@@@2@@std@@0ABV?$vector@PAVValueQT@@V?$allocator@PAVValueQT@@@std@@@4@ABV?$vector@JV?$allocator@J@std@@@4@J@Z
        841  348 000835AB ?onWriteComplete@DaSubscription@SoftingOPCToolboxClient@@AAEXKABV?$vector@PAVDaItem@SoftingOPCToolboxClient@@V?$allocator@PAVDaItem@SoftingOPCToolboxClient@@@std@@@std@@ABV?$vector@PAVValueQT@@V?$allocator@PAVValueQT@@@std@@@4@ABV?$vector@JV?$allocator@J@std@@@4@J@Z
        842  349 000811DE ?performStateTransition@ObjectSpaceElement@SoftingOPCToolboxClient@@UAEJHPAVExecutionOptions@2@@Z
        843  34A 0007F6C7 ?processCommandLine@Application@SoftingOPCToolboxClient@@QAEJAAV?$basic_string@DU?$char_traits@D@std@@V?$allocator@D@2@@std@@@Z
        844  34B 000810EE ?processCommandLine@Application@SoftingOPCToolboxServer@@QAEJAAV?$basic_string@DU?$char_traits@D@std@@V?$allocator@D@2@@std@@@Z
        845  34C 000843FC ?progressRequestState@DaRequest@SoftingOPCToolboxServer@@QAE_NW4tagEnumRequestState@2@0@Z
        846  34D 00080BD0 ?queryAddressSpaceElementChildren@AeAddressSpaceRoot@SoftingOPCToolboxServer@@UAEJABV?$basic_string@DU?$char_traits@D@std@@V?$allocator@D@2@@std@@AAV?$vector@PAVAddressSpaceElement@SoftingOPCToolboxServer@@V?$allocator@PAVAddressSpaceElement@SoftingOPCToolboxServer@@@std@@@4@@Z
        847  34E 000825A2 ?queryAddressSpaceElementChildren@DaAddressSpaceRoot@SoftingOPCToolboxServer@@UAEJABV?$basic_string@DU?$char_traits@D@std@@V?$allocator@D@2@@std@@AAV?$vector@PAVAddressSpaceElement@SoftingOPCToolboxServer@@V?$allocator@PAVAddressSpaceElement@SoftingOPCToolboxServer@@@std@@@4@@Z
        848  34F 00086148 ?queryAddressSpaceElementData@AeAddressSpaceRoot@SoftingOPCToolboxServer@@UAEJABV?$basic_string@DU?$char_traits@D@std@@V?$allocator@D@2@@std@@AAPAVAddressSpaceElement@2@@Z
        849  350 00083CA4 ?queryAddressSpaceElementData@DaAddressSpaceRoot@SoftingOPCToolboxServer@@UAEJABV?$basic_string@DU?$char_traits@D@std@@V?$allocator@D@2@@std@@AAPAVAddressSpaceElement@2@@Z
        850  351 0008325E ?queryAddressSpaceElementDataEx@AeAddressSpaceRoot@SoftingOPCToolboxServer@@UAEJABV?$basic_string@DU?$char_traits@D@std@@V?$allocator@D@2@@std@@AAW4tagEnumAddressSpaceElementData@2@AAPAVAddressSpaceElement@2@@Z
        851  352 00084AB9 ?queryAddressSpaceElementDataEx@DaAddressSpaceRoot@SoftingOPCToolboxServer@@UAEJABV?$basic_string@DU?$char_traits@D@std@@V?$allocator@D@2@@std@@AAW4tagEnumAddressSpaceElementData@2@AAPAVAddressSpaceElement@2@@Z
        852  353 00082764 ?queryAddressSpaceElementProperties@DaAddressSpaceRoot@SoftingOPCToolboxServer@@UAEJABV?$basic_string@DU?$char_traits@D@std@@V?$allocator@D@2@@std@@AAV?$vector@PAVDaProperty@SoftingOPCToolboxServer@@V?$allocator@PAVDaProperty@SoftingOPCToolboxServer@@@std@@@4@@Z
        853  354 00084C94 ?queryAeAttributes@AeCategory@SoftingOPCToolboxClient@@UAEJAAV?$vector@PAVAeAttribute@SoftingOPCToolboxClient@@V?$allocator@PAVAeAttribute@SoftingOPCToolboxClient@@@std@@@std@@PAVExecutionOptions@2@@Z
        854  355 00085324 ?queryAeCategories@AeSession@SoftingOPCToolboxClient@@UAEJAAV?$vector@PAVAeCategory@SoftingOPCToolboxClient@@V?$allocator@PAVAeCategory@SoftingOPCToolboxClient@@@std@@@std@@PAVExecutionOptions@2@@Z
        855  356 00086238 ?queryAeConditionNames@AeCategory@SoftingOPCToolboxClient@@UAEJAAV?$vector@V?$basic_string@DU?$char_traits@D@std@@V?$allocator@D@2@@std@@V?$allocator@V?$basic_string@DU?$char_traits@D@std@@V?$allocator@D@2@@std@@@2@@std@@PAVExecutionOptions@2@@Z
        856  357 00084492 ?queryAeSourceConditions@AeSession@SoftingOPCToolboxClient@@UAEJAAV?$basic_string@DU?$char_traits@D@std@@V?$allocator@D@2@@std@@AAV?$vector@V?$basic_string@DU?$char_traits@D@std@@V?$allocator@D@2@@std@@V?$allocator@V?$basic_string@DU?$char_traits@D@std@@V?$allocator@D@2@@std@@@2@@4@PAVExecutionOptions@2@@Z
        857  358 0008624C ?queryAeSubConditionsNames@AeCategory@SoftingOPCToolboxClient@@UAEJV?$basic_string@DU?$char_traits@D@std@@V?$allocator@D@2@@std@@AAV?$vector@V?$basic_string@DU?$char_traits@D@std@@V?$allocator@D@2@@std@@V?$allocator@V?$basic_string@DU?$char_traits@D@std@@V?$allocator@D@2@@std@@@2@@4@PAVExecutionOptions@2@@Z
        858  359 0008630F ?queryAvailableAeFilters@AeSession@SoftingOPCToolboxClient@@UAEJAAW4tagEnumFilterBy@2@PAVExecutionOptions@2@@Z
        859  35A 0007FB81 ?queryCacheValue@DaAddressSpaceElement@SoftingOPCToolboxServer@@UAEJPAVDaSession@2@AAVValueQT@@@Z
        860  35B 0007FB1D ?queryConditions@AeAddressSpaceElement@SoftingOPCToolboxServer@@UAEJAAV?$basic_string@DU?$char_traits@D@std@@V?$allocator@D@2@@std@@AAV?$vector@V?$basic_string@DU?$char_traits@D@std@@V?$allocator@D@2@@std@@V?$allocator@V?$basic_string@DU?$char_traits@D@std@@V?$allocator@D@2@@std@@@2@@4@@Z
        861  35C 00085BB7 ?queryConditions@AeAddressSpaceRoot@SoftingOPCToolboxServer@@UAEJKAAV?$basic_string@DU?$char_traits@D@std@@V?$allocator@D@2@@std@@AAV?$vector@V?$basic_string@DU?$char_traits@D@std@@V?$allocator@D@2@@std@@V?$allocator@V?$basic_string@DU?$char_traits@D@std@@V?$allocator@D@2@@std@@@2@@4@@Z
        862  35D 00084ED8 ?queryProperties@DaAddressSpaceElement@SoftingOPCToolboxServer@@UAEJAAV?$vector@PAVDaProperty@SoftingOPCToolboxServer@@V?$allocator@PAVDaProperty@SoftingOPCToolboxServer@@@std@@@std@@@Z
        863  35E 00080ECD ?read@DaItem@SoftingOPCToolboxClient@@UAEJKAAVValueQT@@AAJPAVExecutionOptions@2@@Z
        864  35F 0007F9A6 ?read@DaSession@SoftingOPCToolboxClient@@UAEJKV?$vector@V?$basic_string@DU?$char_traits@D@std@@V?$allocator@D@2@@std@@V?$allocator@V?$basic_string@DU?$char_traits@D@std@@V?$allocator@D@2@@std@@@2@@std@@0AAV?$vector@PAVValueQT@@V?$allocator@PAVValueQT@@@std@@@4@AAV?$vector@JV?$allocator@J@std@@@4@PAVExecutionOptions@2@@Z
        865  360 0008597D ?read@DaSubscription@SoftingOPCToolboxClient@@UAEJKV?$vector@PAVDaItem@SoftingOPCToolboxClient@@V?$allocator@PAVDaItem@SoftingOPCToolboxClient@@@std@@@std@@AAV?$vector@PAVValueQT@@V?$allocator@PAVValueQT@@@std@@@4@AAV?$vector@JV?$allocator@J@std@@@4@PAVExecutionOptions@2@@Z
        866  361 0007FFAF ?ready@Application@SoftingOPCToolboxServer@@QAEJXZ
        867  362 0008561C ?refresh@DaSubscription@SoftingOPCToolboxClient@@UAEJKPAVExecutionOptions@2@@Z
        868  363 000842DF ?refreshAeConditions@AeSubscription@SoftingOPCToolboxClient@@UAEJPAVExecutionOptions@2@@Z
        869  364 00082EE4 ?releaseCondition@Application@SoftingOPCToolboxServer@@QAEXK@Z
        870  365 00081AB7 ?releaseTransaction@Application@SoftingOPCToolboxServer@@QAEXK@Z
        871  366 0008038D ?removeAeSession@Application@SoftingOPCToolboxClient@@QAEJPAVAeSession@2@@Z
        872  367 000844AB ?removeAeSubscription@AeSession@SoftingOPCToolboxClient@@UAEJPAVAeSubscription@2@@Z
        873  368 000825CF ?removeChild@AddressSpaceElement@SoftingOPCToolboxServer@@UAEHPAV12@@Z
        874  369 00082FCF ?removeChild@AddressSpaceRoot@SoftingOPCToolboxServer@@UAEHPAVAddressSpaceElement@2@@Z
        875  36A 00081508 ?removeChild@AeAddressSpaceElement@SoftingOPCToolboxServer@@UAEHPAVAddressSpaceElement@2@@Z
        876  36B 000848C0 ?removeChild@DaAddressSpaceElement@SoftingOPCToolboxServer@@UAEHPAVAddressSpaceElement@2@@Z
        877  36C 000809C8 ?removeDaItem@DaSubscription@SoftingOPCToolboxClient@@UAEJPAVDaItem@2@@Z
        878  36D 00080DEC ?removeDaSession@Application@SoftingOPCToolboxClient@@QAEJPAVDaSession@2@@Z
        879  36E 0007F825 ?removeDaSubscription@DaSession@SoftingOPCToolboxClient@@UAEJPAVDaSubscription@2@@Z
        880  36F 00086201 ?removeElementFromArray@AddressSpaceRoot@SoftingOPCToolboxServer@@MAEHK@Z
        881  370 00085C52 ?removeElementFromArray@AddressSpaceRoot@SoftingOPCToolboxServer@@MAEHPAVAddressSpaceElement@2@@Z
        882  371 000806A3 ?removeRequest@DaTransaction@SoftingOPCToolboxServer@@QAEXPAVDaRequest@2@@Z
        883  372 000827E6 ?removeSession@Application@SoftingOPCToolboxServer@@QAEXK@Z
        884  373 0007FD48 ?removedFromAddressSpace@AddressSpaceElement@SoftingOPCToolboxServer@@UAEXXZ
        885  374 00084979 ?safeArrayCreate@Variant@@SAPAUtagSAFEARRAY@@GGPAUtagSAFEARRAYBOUND@@@Z
        886  375 0007F7C6 ?safeArrayCreateVector@Variant@@SAPAUtagSAFEARRAY@@GJK@Z
        887  376 000805D1 ?second@DateTime@@QAEGXZ
        888  377 00080577 ?secondGMT@DateTime@@QAEGXZ
        889  378 00080725 ?set@DateTime@@QAEXPBU_FILETIME@@@Z
        890  379 0008619D ?set@Variant@@QAEAAV1@PAXGG@Z
        891  37A 00081323 ?setAccessRights@DaAddressSpaceElement@SoftingOPCToolboxServer@@QAEXW4tagEnumAccessRights@@@Z
        892  37B 0008146D ?setAccessRights@DaProperty@SoftingOPCToolboxServer@@QAEXW4tagEnumAccessRights@@@Z
        893  37C 00084BB3 ?setAccessRightsFilter@DaAddressSpaceElementBrowseOptions@SoftingOPCToolboxClient@@QAEXW4tagEnumAccessRights@@@Z
        894  37D 000841F9 ?setAckComment@AeCondition@SoftingOPCToolboxServer@@QAEXAAV?$basic_string@DU?$char_traits@D@std@@V?$allocator@D@2@@std@@@Z
        895  37E 00080C8E ?setAckId@AeCondition@SoftingOPCToolboxServer@@QAEXAAV?$basic_string@DU?$char_traits@D@std@@V?$allocator@D@2@@std@@@Z
        896  37F 0007F16D ?setAckRequired@AeCondition@SoftingOPCToolboxClient@@QAEXH@Z
        897  380 0007F6B3 ?setAckRequired@AeCondition@SoftingOPCToolboxServer@@QAEXH@Z
        898  381 0008480C ?setAckTime@AeCondition@SoftingOPCToolboxServer@@QAEXVDateTime@@@Z
        899  382 00080EFA ?setAcknowledgerComment@AeConditionState@SoftingOPCToolboxClient@@QAEXV?$basic_string@DU?$char_traits@D@std@@V?$allocator@D@2@@std@@@Z
        900  383 000831D7 ?setAcknowledgerId@AeConditionState@SoftingOPCToolboxClient@@QAEXV?$basic_string@DU?$char_traits@D@std@@V?$allocator@D@2@@std@@@Z
        901  384 00083957 ?setActiveSubConditionDefinition@AeConditionState@SoftingOPCToolboxClient@@QAEXV?$basic_string@DU?$char_traits@D@std@@V?$allocator@D@2@@std@@@Z
        902  385 000802D9 ?setActiveSubConditionDescription@AeConditionState@SoftingOPCToolboxClient@@QAEXV?$basic_string@DU?$char_traits@D@std@@V?$allocator@D@2@@std@@@Z
        903  386 000814B3 ?setActiveSubConditionName@AeCondition@SoftingOPCToolboxServer@@QAEXAAV?$basic_string@DU?$char_traits@D@std@@V?$allocator@D@2@@std@@@Z
        904  387 0008004A ?setActiveSubConditionName@AeConditionState@SoftingOPCToolboxClient@@QAEXV?$basic_string@DU?$char_traits@D@std@@V?$allocator@D@2@@std@@@Z
        905  388 00083F74 ?setActiveSubConditionSeverity@AeConditionState@SoftingOPCToolboxClient@@QAEXK@Z
        906  389 0008268D ?setActiveTime@AeCondition@SoftingOPCToolboxClient@@QAEXVDateTime@@@Z
        907  38A 000812C9 ?setActorId@AeEvent@SoftingOPCToolboxClient@@QAEXV?$basic_string@DU?$char_traits@D@std@@V?$allocator@D@2@@std@@@Z
        908  38B 00082F75 ?setActorId@AeEvent@SoftingOPCToolboxServer@@QAEXAAV?$basic_string@DU?$char_traits@D@std@@V?$allocator@D@2@@std@@@Z
        909  38C 00081B25 ?setAddressSpaceDelimiter@Application@SoftingOPCToolboxServer@@QAEXD@Z
        910  38D 00082C0A ?setAeServerState@Application@SoftingOPCToolboxServer@@QAEJW4tagEnumServerState@@@Z
        911  38E 00081FE9 ?setAeSession@AeCondition@SoftingOPCToolboxClient@@QAEXPAVAeSession@2@@Z
        912  38F 0008567B ?setAeSession@AeSubscription@SoftingOPCToolboxClient@@QAEXPAVAeSession@2@@Z
        913  390 00080EEB ?setAeSubscription@AeCondition@SoftingOPCToolboxClient@@IAEXPAVAeSubscription@2@@Z
        914  391 00084ABE ?setAppType@Application@SoftingOPCToolboxServer@@QAEXW4tagEnumApplicationType@2@@Z
        915  392 00082BEC ?setAttributeValueList@AeEvent@SoftingOPCToolboxServer@@QAEXAAV?$vector@VVariant@@V?$allocator@VVariant@@@std@@@std@@@Z
        916  393 00080207 ?setAttributes@AeEvent@SoftingOPCToolboxClient@@QAEXV?$vector@PAVVariant@@V?$allocator@PAVVariant@@@std@@@std@@@Z
        917  394 00082D63 ?setAttributesErrors@AeConditionState@SoftingOPCToolboxClient@@QAEXV?$vector@JV?$allocator@J@std@@@std@@@Z
        918  395 00085DE2 ?setAttributesIds@AeReturnedAttributes@SoftingOPCToolboxClient@@QAEXV?$vector@KV?$allocator@K@std@@@std@@@Z
        919  396 000801A3 ?setAttributesToServer@ObjectSpaceElement@SoftingOPCToolboxClient@@UAEJV?$vector@W4tagEnumObjectAttribute@SoftingOPCToolboxClient@@V?$allocator@W4tagEnumObjectAttribute@SoftingOPCToolboxClient@@@std@@@std@@V?$vector@JV?$allocator@J@std@@@4@PAVExecutionOptions@2@@Z
        920  397 00082CE1 ?setBOOL@Variant@@QAEX_N@Z
        921  398 00081AB2 ?setBSTR@Variant@@QAEXPBD@Z
        922  399 00086210 ?setBuildNumber@Application@SoftingOPCToolboxServer@@QAEXF@Z
        923  39A 0007F72B ?setCY@Variant@@QAEXTtagCY@@@Z
        924  39B 00083943 ?setCategory@AeCondition@SoftingOPCToolboxServer@@QAEXPAVAeCategory@2@@Z
        925  39C 000838B7 ?setCategory@AeEvent@SoftingOPCToolboxClient@@QAEXK@Z
        926  39D 00083029 ?setCategoryId@AeEvent@SoftingOPCToolboxServer@@QAEXK@Z
        927  39E 00083C59 ?setCategoryId@AeReturnedAttributes@SoftingOPCToolboxClient@@QAEXK@Z
        928  39F 000852A2 ?setCbImpLevel@Application@SoftingOPCToolboxServer@@QAEXK@Z
        929  3A0 0007F2E4 ?setChangeMask@AeCondition@SoftingOPCToolboxClient@@QAEXW4tagEnumConditionChange@@@Z
        930  3A1 00081E5E ?setChangeMask@AeCondition@SoftingOPCToolboxServer@@QAEXG@Z
        931  3A2 00081959 ?setClassContext@AeSession@SoftingOPCToolboxClient@@UAEXW4tagEnumClassContext@2@@Z
        932  3A3 000838E9 ?setClassContext@DaSession@SoftingOPCToolboxClient@@UAEXW4tagEnumClassContext@2@@Z
        933  3A4 00085E3C ?setClientCheckPeriod@Application@SoftingOPCToolboxServer@@QAEXJ@Z
        934  3A5 000829E9 ?setClientName@AeSession@SoftingOPCToolboxClient@@UAEXV?$basic_string@DU?$char_traits@D@std@@V?$allocator@D@2@@std@@@Z
        935  3A6 00083475 ?setClientName@DaSession@SoftingOPCToolboxClient@@UAEXV?$basic_string@DU?$char_traits@D@std@@V?$allocator@D@2@@std@@@Z
        936  3A7 000827AF ?setClsidAe@Application@SoftingOPCToolboxServer@@QAEXV?$basic_string@DU?$char_traits@D@std@@V?$allocator@D@2@@std@@@Z
        937  3A8 00082FD9 ?setClsidDa@Application@SoftingOPCToolboxServer@@QAEXV?$basic_string@DU?$char_traits@D@std@@V?$allocator@D@2@@std@@@Z
        938  3A9 00080991 ?setConditionAckTime@AeConditionState@SoftingOPCToolboxClient@@QAEXVDateTime@@@Z
        939  3AA 00080784 ?setConditionActiveTime@AeConditionState@SoftingOPCToolboxClient@@QAEXVDateTime@@@Z
        940  3AB 00080C48 ?setConditionInactiveTime@AeConditionState@SoftingOPCToolboxClient@@QAEXVDateTime@@@Z
        941  3AC 00082B5B ?setConditionName@AeCondition@SoftingOPCToolboxClient@@QAEXV?$basic_string@DU?$char_traits@D@std@@V?$allocator@D@2@@std@@@Z
        942  3AD 00084451 ?setContinuationPoint@DaAddressSpaceElementBrowseOptions@SoftingOPCToolboxClient@@QAEXV?$basic_string@DU?$char_traits@D@std@@V?$allocator@D@2@@std@@@Z
        943  3AE 000842DA ?setCookie@AeCondition@SoftingOPCToolboxClient@@QAEXK@Z
        944  3AF 00082EAD ?setDATE@Variant@@QAEXN@Z
        945  3B0 00082FF2 ?setDaItemAttributesToServer@DaSubscription@SoftingOPCToolboxClient@@UAEJV?$vector@PAVDaItem@SoftingOPCToolboxClient@@V?$allocator@PAVDaItem@SoftingOPCToolboxClient@@@std@@@std@@V?$vector@W4tagEnumObjectAttribute@SoftingOPCToolboxClient@@V?$allocator@W4tagEnumObjectAttribute@SoftingOPCToolboxClient@@@std@@@4@AAV?$vector@JV?$allocator@J@std@@@4@PAVExecutionOptions@2@@Z
        946  3B1 000820B1 ?setDaServerState@Application@SoftingOPCToolboxServer@@QAEJW4tagEnumServerState@@@Z
        947  3B2 00084EBA ?setDaSession@DaSubscription@SoftingOPCToolboxClient@@QAEXPAVDaSession@2@@Z
        948  3B3 00084366 ?setDaSubscription@DaItem@SoftingOPCToolboxClient@@QAEXPAVDaSubscription@2@@Z
        949  3B4 0007F5C8 ?setData@ValueQT@@QAEXAAUtagVARIANT@@W4tagEnumQuality@@VDateTime@@@Z
        950  3B5 00084929 ?setDataRetrievalMode@DaSubscription@SoftingOPCToolboxClient@@QAEXW4tagEnumDataRetrievalMode@2@@Z
        951  3B6 000826C4 ?setDataType@AeAttribute@SoftingOPCToolboxClient@@QAEXG@Z
        952  3B7 0007F712 ?setDataType@AeAttribute@SoftingOPCToolboxServer@@QAEXW4VARENUM@@@Z
        953  3B8 00081A71 ?setDataTypeFilter@DaAddressSpaceElementBrowseOptions@SoftingOPCToolboxClient@@QAEXG@Z
        954  3B9 00084BD1 ?setDatatype@DaAddressSpaceElement@SoftingOPCToolboxServer@@QAEXW4VARENUM@@@Z
        955  3BA 000825AC ?setDatatype@DaProperty@SoftingOPCToolboxServer@@QAEXW4VARENUM@@@Z
        956  3BB 00082953 ?setDcomAuthLevel@Application@SoftingOPCToolboxClient@@QAEXK@Z
        957  3BC 00084DB1 ?setDcomAuthLevel@Application@SoftingOPCToolboxServer@@QAEXK@Z
        958  3BD 000853E7 ?setDcomCbAuthLevel@Application@SoftingOPCToolboxServer@@QAEXK@Z
        959  3BE 00082F98 ?setDcomImpLevel@Application@SoftingOPCToolboxClient@@QAEXK@Z
        960  3BF 0008103F ?setDcomImpLevel@Application@SoftingOPCToolboxServer@@QAEXK@Z
        961  3C0 00082CAA ?setDeadband@DaItem@SoftingOPCToolboxClient@@QAEXM@Z
        962  3C1 000834C5 ?setDeadband@DaSubscription@SoftingOPCToolboxClient@@QAEXM@Z
        963  3C2 00085B1C ?setDefinition@AeCondition@SoftingOPCToolboxServer@@QAEXPAVAeConditionDefinition@2@@Z
        964  3C3 00083993 ?setDescription@AeAttribute@SoftingOPCToolboxClient@@QAEXV?$basic_string@DU?$char_traits@D@std@@V?$allocator@D@2@@std@@@Z
        965  3C4 0008241C ?setDescription@AeCategory@SoftingOPCToolboxClient@@QAEXV?$basic_string@DU?$char_traits@D@std@@V?$allocator@D@2@@std@@@Z
        966  3C5 0008024D ?setDescription@AeSubConditionDefinition@SoftingOPCToolboxServer@@QAEXAAV?$basic_string@DU?$char_traits@D@std@@V?$allocator@D@2@@std@@@Z
        967  3C6 00084A5F ?setDescription@Application@SoftingOPCToolboxServer@@QAEXV?$basic_string@DU?$char_traits@D@std@@V?$allocator@D@2@@std@@@Z
        968  3C7 00085AC2 ?setDescription@DaProperty@SoftingOPCToolboxServer@@QAEXAAV?$basic_string@DU?$char_traits@D@std@@V?$allocator@D@2@@std@@@Z
        969  3C8 000852F7 ?setEUInfoAnalog@DaAddressSpaceElement@SoftingOPCToolboxServer@@QAEJNN@Z
        970  3C9 00085D29 ?setEUInfoEnumerated@DaAddressSpaceElement@SoftingOPCToolboxServer@@QAEJV?$vector@V?$basic_string@DU?$char_traits@D@std@@V?$allocator@D@2@@std@@V?$allocator@V?$basic_string@DU?$char_traits@D@std@@V?$allocator@D@2@@std@@@2@@std@@@Z
        971  3CA 0007F73F ?setElementNameFilter@AddressSpaceElementBrowseOptions@SoftingOPCToolboxClient@@QAEXV?$basic_string@DU?$char_traits@D@std@@V?$allocator@D@2@@std@@@Z
        972  3CB 00084820 ?setElementTypeFilter@AddressSpaceElementBrowseOptions@SoftingOPCToolboxClient@@QAEXW4tagEnumAddressSpaceElementType@2@@Z
        973  3CC 000860DA ?setEventAttributes@AeCondition@SoftingOPCToolboxServer@@QAEXAAV?$vector@VVariant@@V?$allocator@VVariant@@@std@@@std@@@Z
        974  3CD 00085EA5 ?setEventAttributes@AeConditionState@SoftingOPCToolboxClient@@QAEXV?$vector@PAVVariant@@V?$allocator@PAVVariant@@@std@@@std@@@Z
        975  3CE 00081828 ?setEventType@AeCategory@SoftingOPCToolboxClient@@QAEXW4tagEnumEventType@@@Z
        976  3CF 00082971 ?setEventType@AeEvent@SoftingOPCToolboxClient@@QAEXW4tagEnumEventType@@@Z
        977  3D0 0007FEA1 ?setFilterAreas@AeSubscription@SoftingOPCToolboxClient@@QAEXV?$vector@V?$basic_string@DU?$char_traits@D@std@@V?$allocator@D@2@@std@@V?$allocator@V?$basic_string@DU?$char_traits@D@std@@V?$allocator@D@2@@std@@@2@@std@@@Z
        978  3D1 000820E8 ?setFilterCategories@AeSubscription@SoftingOPCToolboxClient@@QAEXV?$vector@KV?$allocator@K@std@@@std@@@Z
        979  3D2 000842D5 ?setFilterEventTypes@AeSubscription@SoftingOPCToolboxClient@@QAEXK@Z
        980  3D3 00083862 ?setFilterSeverityHigh@AeSubscription@SoftingOPCToolboxClient@@QAEXK@Z
        981  3D4 0007F75D ?setFilterSeverityLow@AeSubscription@SoftingOPCToolboxClient@@QAEXK@Z
        982  3D5 0007FA8C ?setFilterSources@AeSubscription@SoftingOPCToolboxClient@@QAEXV?$vector@V?$basic_string@DU?$char_traits@D@std@@V?$allocator@D@2@@std@@V?$allocator@V?$basic_string@DU?$char_traits@D@std@@V?$allocator@D@2@@std@@@2@@std@@@Z
        983  3D6 0008075C ?setForceBrowseUp@AddressSpaceElementBrowseOptions@SoftingOPCToolboxClient@@QAEXH@Z
        984  3D7 00084460 ?setForcedOpcSpecification@DaSession@SoftingOPCToolboxClient@@UAEXW4tagEnumOPCSpecification@@@Z
        985  3D8 00082F70 ?setHandle@AeCategory@SoftingOPCToolboxServer@@IAEXK@Z
        986  3D9 00083CFE ?setHandle@AeCondition@SoftingOPCToolboxServer@@AAEXK@Z
        987  3DA 00084F82 ?setHandle@ObjectSpaceElement@SoftingOPCToolboxClient@@EAEXK@Z
        988  3DB 00080DB5 ?setHasChildren@AddressSpaceElement@SoftingOPCToolboxServer@@QAEXH@Z
        989  3DC 0007F34D ?setI1@Variant@@QAEXD@Z
        990  3DD 00084A50 ?setI2@Variant@@QAEXF@Z
        991  3DE 000847DF ?setI4@Variant@@QAEXJ@Z
        992  3DF 00082F16 ?setI8@Variant@@QAEX_J@Z
        993  3E0 0007F48D ?setINT@Variant@@QAEXH@Z
        994  3E1 0008041E ?setId@AeAttribute@SoftingOPCToolboxClient@@QAEXK@Z
        995  3E2 000839CF ?setId@AeAttribute@SoftingOPCToolboxServer@@QAEXK@Z
        996  3E3 00083321 ?setId@AeCategory@SoftingOPCToolboxClient@@QAEXK@Z
        997  3E4 00084636 ?setId@AeCategory@SoftingOPCToolboxServer@@QAEXK@Z
        998  3E5 0007F988 ?setId@DaItem@SoftingOPCToolboxClient@@QAEXV?$basic_string@DU?$char_traits@D@std@@V?$allocator@D@2@@std@@@Z
        999  3E6 00082D4F ?setId@DaProperty@SoftingOPCToolboxServer@@QAEXH@Z
       1000  3E7 000823A9 ?setIoMode@DaAddressSpaceElement@SoftingOPCToolboxServer@@QAEXW4tagEnumIoMode@2@@Z
       1001  3E8 00085801 ?setIpAddress@ServerBrowser@SoftingOPCToolboxClient@@QAEXV?$basic_string@DU?$char_traits@D@std@@V?$allocator@D@2@@std@@@Z
       1002  3E9 000853C4 ?setIpPortHTTP@Application@SoftingOPCToolboxServer@@QAEXG@Z
       1003  3EA 00080A81 ?setIsBrowsable@AddressSpaceElement@SoftingOPCToolboxServer@@QAEXH@Z
       1004  3EB 0008568A ?setItemId@DaAddressSpaceElement@SoftingOPCToolboxServer@@QAEXAAV?$basic_string@DU?$char_traits@D@std@@V?$allocator@D@2@@std@@@Z
       1005  3EC 00084154 ?setItemId@DaProperty@SoftingOPCToolboxServer@@QAEXAAV?$basic_string@DU?$char_traits@D@std@@V?$allocator@D@2@@std@@@Z
       1006  3ED 00080996 ?setLocaleId@AeSession@SoftingOPCToolboxClient@@UAEXV?$basic_string@DU?$char_traits@D@std@@V?$allocator@D@2@@std@@@Z
       1007  3EE 00081FAD ?setLocaleId@DaSession@SoftingOPCToolboxClient@@UAEXV?$basic_string@DU?$char_traits@D@std@@V?$allocator@D@2@@std@@@Z
       1008  3EF 00085B08 ?setLocaleId@DaSubscription@SoftingOPCToolboxClient@@QAEXV?$basic_string@DU?$char_traits@D@std@@V?$allocator@D@2@@std@@@Z
       1009  3F0 00085F31 ?setMajorVersion@Application@SoftingOPCToolboxServer@@QAEXF@Z
       1010  3F1 00085A45 ?setMaxElements@DaAddressSpaceElementBrowseOptions@SoftingOPCToolboxClient@@QAEXK@Z
       1011  3F2 0008063A ?setMessage@AeCondition@SoftingOPCToolboxServer@@QAEXAAV?$basic_string@DU?$char_traits@D@std@@V?$allocator@D@2@@std@@@Z
       1012  3F3 0008360F ?setMessage@AeEvent@SoftingOPCToolboxClient@@QAEXV?$basic_string@DU?$char_traits@D@std@@V?$allocator@D@2@@std@@@Z
       1013  3F4 0007FDB6 ?setMessage@AeEvent@SoftingOPCToolboxServer@@QAEXAAV?$basic_string@DU?$char_traits@D@std@@V?$allocator@D@2@@std@@@Z
       1014  3F5 000817A6 ?setMicroseconds@DateTime@@QAEX_K@Z
       1015  3F6 000850B3 ?setMinUpdateRateDa@Application@SoftingOPCToolboxServer@@QAEXJ@Z
       1016  3F7 00084073 ?setMinorVersion@Application@SoftingOPCToolboxServer@@QAEXF@Z
       1017  3F8 00085E50 ?setName@AddressSpaceElement@SoftingOPCToolboxServer@@QAEXAAV?$basic_string@DU?$char_traits@D@std@@V?$allocator@D@2@@std@@@Z
       1018  3F9 00082688 ?setName@AeAttribute@SoftingOPCToolboxServer@@QAEXAAV?$basic_string@DU?$char_traits@D@std@@V?$allocator@D@2@@std@@@Z
       1019  3FA 0008329F ?setName@AeCategory@SoftingOPCToolboxServer@@QAEXAAV?$basic_string@DU?$char_traits@D@std@@V?$allocator@D@2@@std@@@Z
       1020  3FB 00085E19 ?setName@AeCondition@SoftingOPCToolboxServer@@QAEXAAV?$basic_string@DU?$char_traits@D@std@@V?$allocator@D@2@@std@@@Z
       1021  3FC 000801E9 ?setName@DaProperty@SoftingOPCToolboxServer@@QAEXAAV?$basic_string@DU?$char_traits@D@std@@V?$allocator@D@2@@std@@@Z
       1022  3FD 00084370 ?setName@DaSubscription@SoftingOPCToolboxClient@@QAEXV?$basic_string@DU?$char_traits@D@std@@V?$allocator@D@2@@std@@@Z
       1023  3FE 00083B14 ?setObjectHandle@AddressSpaceElement@SoftingOPCToolboxServer@@IAEXK@Z
       1024  3FF 00085B3F ?setOccurenceTime@AeCondition@SoftingOPCToolboxServer@@QAEXVDateTime@@@Z
       1025  400 00080A0E ?setOccurenceTime@AeEvent@SoftingOPCToolboxClient@@QAEXVDateTime@@@Z
       1026  401 0007F07D ?setOccurenceTime@AeEvent@SoftingOPCToolboxServer@@QAEXAAVDateTime@@@Z
       1027  402 00081DAA ?setOptimizeForSpeed@Application@SoftingOPCToolboxServer@@QAEXH@Z
       1028  403 000813B4 ?setParentHandle@AddressSpaceElement@SoftingOPCToolboxServer@@IAEXK@Z
       1029  404 00085BF3 ?setPatchVersion@Application@SoftingOPCToolboxServer@@QAEXF@Z
       1030  405 0008021B ?setPath@DaItem@SoftingOPCToolboxClient@@QAEXV?$basic_string@DU?$char_traits@D@std@@V?$allocator@D@2@@std@@@Z
       1031  406 00080DBF ?setPerformInitialRead@DaSession@SoftingOPCToolboxClient@@UAEXH@Z
       1032  407 0008152B ?setProgIdAe@Application@SoftingOPCToolboxServer@@QAEXV?$basic_string@DU?$char_traits@D@std@@V?$allocator@D@2@@std@@@Z
       1033  408 00082B38 ?setProgIdDa@Application@SoftingOPCToolboxServer@@QAEXV?$basic_string@DU?$char_traits@D@std@@V?$allocator@D@2@@std@@@Z
       1034  409 00083A3D ?setPropertyDelimiter@Application@SoftingOPCToolboxServer@@QAEXD@Z
       1035  40A 000820CF ?setPropertyIds@DaGetPropertiesOptions@SoftingOPCToolboxClient@@QAEXAAV?$vector@KV?$allocator@K@std@@@std@@@Z
       1036  40B 00080BCB ?setPropertyNames@DaGetPropertiesOptions@SoftingOPCToolboxClient@@QAEXAAV?$vector@V?$basic_string@DU?$char_traits@D@std@@V?$allocator@D@2@@std@@V?$allocator@V?$basic_string@DU?$char_traits@D@std@@V?$allocator@D@2@@std@@@2@@std@@@Z
       1037  40C 0007F00F ?setQuality@AeCondition@SoftingOPCToolboxClient@@QAEXW4tagEnumQuality@@@Z
       1038  40D 00082516 ?setQuality@AeCondition@SoftingOPCToolboxServer@@QAEXW4tagEnumQuality@@@Z
       1039  40E 000824A3 ?setQuality@AeConditionState@SoftingOPCToolboxClient@@QAEXW4tagEnumQuality@@@Z
       1040  40F 00083871 ?setR4@Variant@@QAEXM@Z
       1041  410 00082165 ?setR8@Variant@@QAEXN@Z
       1042  411 000816C0 ?setRequestState@DaRequest@SoftingOPCToolboxServer@@QAEXW4tagEnumRequestState@2@@Z
       1043  412 00084CE4 ?setRequestTimeout@DaSession@SoftingOPCToolboxClient@@UAEXK@Z
       1044  413 000833DA ?setRequestedBufferTime@AeSubscription@SoftingOPCToolboxClient@@QAEXK@Z
       1045  414 0008545F ?setRequestedDataType@DaItem@SoftingOPCToolboxClient@@QAEXG@Z
       1046  415 00082755 ?setRequestedKeepAliveTime@DaSubscription@SoftingOPCToolboxClient@@QAEXK@Z
       1047  416 0008206B ?setRequestedMaxSize@AeSubscription@SoftingOPCToolboxClient@@QAEXK@Z
       1048  417 00080DD3 ?setRequestedUpdateRate@DaSubscription@SoftingOPCToolboxClient@@QAEXK@Z
       1049  418 00083303 ?setResult@DaRequest@SoftingOPCToolboxServer@@QAEXJ@Z
       1050  419 0007F479 ?setRetrieveItemId@DaAddressSpaceElementBrowseOptions@SoftingOPCToolboxClient@@QAEXH@Z
       1051  41A 0007FA87 ?setReturnProperties@DaAddressSpaceElementBrowseOptions@SoftingOPCToolboxClient@@QAEXH@Z
       1052  41B 00084041 ?setReturnPropertyValues@DaAddressSpaceElementBrowseOptions@SoftingOPCToolboxClient@@QAEXH@Z
       1053  41C 00085B58 ?setReturnedAttributes@AeSubscription@SoftingOPCToolboxClient@@QAEXV?$vector@PAVAeReturnedAttributes@SoftingOPCToolboxClient@@V?$allocator@PAVAeReturnedAttributes@SoftingOPCToolboxClient@@@std@@@std@@@Z
       1054  41D 000858BA ?setServiceDescription@Application@SoftingOPCToolboxClient@@QAEXV?$basic_string@DU?$char_traits@D@std@@V?$allocator@D@2@@std@@@Z
       1055  41E 00084532 ?setServiceDescription@Application@SoftingOPCToolboxServer@@QAEXV?$basic_string@DU?$char_traits@D@std@@V?$allocator@D@2@@std@@@Z
       1056  41F 00084267 ?setServiceName@Application@SoftingOPCToolboxClient@@QAEXV?$basic_string@DU?$char_traits@D@std@@V?$allocator@D@2@@std@@@Z
       1057  420 00083A33 ?setServiceName@Application@SoftingOPCToolboxServer@@QAEXV?$basic_string@DU?$char_traits@D@std@@V?$allocator@D@2@@std@@@Z
       1058  421 00082147 ?setSession@AeCategory@SoftingOPCToolboxClient@@QAEXPAVAeSession@2@@Z
       1059  422 00084D2F ?setSeverity@AeCondition@SoftingOPCToolboxServer@@QAEXK@Z
       1060  423 0007F555 ?setSeverity@AeEvent@SoftingOPCToolboxClient@@QAEXK@Z
       1061  424 00082115 ?setSeverity@AeEvent@SoftingOPCToolboxServer@@QAEXK@Z
       1062  425 00085603 ?setSeverity@AeSubConditionDefinition@SoftingOPCToolboxServer@@QAEXK@Z
       1063  426 00085CB1 ?setSource@AeEvent@SoftingOPCToolboxServer@@QAEXAAV?$basic_string@DU?$char_traits@D@std@@V?$allocator@D@2@@std@@@Z
       1064  427 000844A1 ?setSourcePath@AeCondition@SoftingOPCToolboxServer@@QAEXAAV?$basic_string@DU?$char_traits@D@std@@V?$allocator@D@2@@std@@@Z
       1065  428 0008031A ?setSourcePath@AeEvent@SoftingOPCToolboxClient@@QAEXV?$basic_string@DU?$char_traits@D@std@@V?$allocator@D@2@@std@@@Z
       1066  429 00084F1E ?setState@AeCondition@SoftingOPCToolboxClient@@QAEXW4tagEnumConditionState@@@Z
       1067  42A 00085D4C ?setState@AeConditionState@SoftingOPCToolboxClient@@QAEXW4tagEnumConditionState@@@Z
       1068  42B 000846A9 ?setStateChange@AeCondition@SoftingOPCToolboxServer@@QAEXW4tagEnumConditionState@@@Z
       1069  42C 0007F3D4 ?setStringBasedObjectDataExpiry@Application@SoftingOPCToolboxServer@@QAEXK@Z
       1070  42D 000847D5 ?setSubConditionActiveTime@AeConditionState@SoftingOPCToolboxClient@@QAEXVDateTime@@@Z
       1071  42E 00081170 ?setSubConditionName@AeCondition@SoftingOPCToolboxClient@@QAEXV?$basic_string@DU?$char_traits@D@std@@V?$allocator@D@2@@std@@@Z
       1072  42F 0007FFC8 ?setSubConditionsDefinitions@AeConditionState@SoftingOPCToolboxClient@@QAEXV?$vector@V?$basic_string@DU?$char_traits@D@std@@V?$allocator@D@2@@std@@V?$allocator@V?$basic_string@DU?$char_traits@D@std@@V?$allocator@D@2@@std@@@2@@std@@@Z
       1073  430 000808D8 ?setSubConditionsDescriptions@AeConditionState@SoftingOPCToolboxClient@@QAEXV?$vector@V?$basic_string@DU?$char_traits@D@std@@V?$allocator@D@2@@std@@V?$allocator@V?$basic_string@DU?$char_traits@D@std@@V?$allocator@D@2@@std@@@2@@std@@@Z
       1074  431 00083A74 ?setSubConditionsNames@AeConditionState@SoftingOPCToolboxClient@@QAEXV?$vector@V?$basic_string@DU?$char_traits@D@std@@V?$allocator@D@2@@std@@V?$allocator@V?$basic_string@DU?$char_traits@D@std@@V?$allocator@D@2@@std@@@2@@std@@@Z
       1075  432 0007F429 ?setSubConditionsSeverities@AeConditionState@SoftingOPCToolboxClient@@QAEXV?$vector@KV?$allocator@K@std@@@std@@@Z
       1076  433 00084E47 ?setSupportDisableConditions@Application@SoftingOPCToolboxServer@@QAEXE@Z
       1077  434 0008565D ?setTargetState@ObjectSpaceElement@SoftingOPCToolboxClient@@UAEXW4tagEnumObjectState@2@@Z
       1078  435 00082E99 ?setTimeBias@DaSubscription@SoftingOPCToolboxClient@@QAEXJ@Z
       1079  436 00083B7D ?setTpPort@Application@SoftingOPCToolboxServer@@QAEXG@Z
       1080  437 00083E93 ?setTransactionKey@DaRequest@SoftingOPCToolboxServer@@QAEXK@Z
       1081  438 0007F2C1 ?setType@AeEvent@SoftingOPCToolboxServer@@QAEXW4tagEnumEventType@@@Z
       1082  439 00083F83 ?setUI1@Variant@@QAEXE@Z
       1083  43A 000839D9 ?setUI2@Variant@@QAEXG@Z
       1084  43B 000803BF ?setUI4@Variant@@QAEXK@Z
       1085  43C 00083AC9 ?setUI8@Variant@@QAEX_K@Z
       1086  43D 0008071B ?setUINT@Variant@@QAEXI@Z
       1087  43E 0007F523 ?setUpdateAttributesBehavior@Application@SoftingOPCToolboxClient@@QAEXW4tagEnumUpdateAttributesBehavior@2@@Z
       1088  43F 00081F94 ?setUrlDa@Application@SoftingOPCToolboxServer@@QAEXV?$basic_string@DU?$char_traits@D@std@@V?$allocator@D@2@@std@@@Z
       1089  440 000814E0 ?setUserData@AddressSpaceElement@SoftingOPCToolboxServer@@UAEXK@Z
       1090  441 0008127E ?setUserData@AeCondition@SoftingOPCToolboxServer@@QAEXK@Z
       1091  442 00082B60 ?setValue@DaRequest@SoftingOPCToolboxServer@@QAEXAAVValueQT@@@Z
       1092  443 00083664 ?setValueQT@DaItem@SoftingOPCToolboxClient@@QAEXPAVValueQT@@@Z
       1093  444 00084C3F ?setVendorFilter@DaAddressSpaceElementBrowseOptions@SoftingOPCToolboxClient@@QAEXV?$basic_string@DU?$char_traits@D@std@@V?$allocator@D@2@@std@@@Z
       1094  445 000835D8 ?setVendorInfo@Application@SoftingOPCToolboxServer@@QAEXV?$basic_string@DU?$char_traits@D@std@@V?$allocator@D@2@@std@@@Z
       1095  446 000846F4 ?setVerIndProgIdAe@Application@SoftingOPCToolboxServer@@QAEXV?$basic_string@DU?$char_traits@D@std@@V?$allocator@D@2@@std@@@Z
       1096  447 00086292 ?setVerIndProgIdDa@Application@SoftingOPCToolboxServer@@QAEXV?$basic_string@DU?$char_traits@D@std@@V?$allocator@D@2@@std@@@Z
       1097  448 000832F9 ?setVersionOtb@Application@SoftingOPCToolboxClient@@QAEXG@Z
       1098  449 0007F2CB ?setVersionOtb@Application@SoftingOPCToolboxServer@@QAEXG@Z
       1099  44A 0007F58C ?setWebAdministratorPassword@Application@SoftingOPCToolboxServer@@QAEXV?$basic_string@DU?$char_traits@D@std@@V?$allocator@D@2@@std@@@Z
       1100  44B 00081698 ?setWebOperatorPassword@Application@SoftingOPCToolboxServer@@QAEXV?$basic_string@DU?$char_traits@D@std@@V?$allocator@D@2@@std@@@Z
       1101  44C 0007FA41 ?setWebRootDirectory@Application@SoftingOPCToolboxServer@@QAEXV?$basic_string@DU?$char_traits@D@std@@V?$allocator@D@2@@std@@@Z
       1102  44D 0007F8E3 ?setWebRootFile@Application@SoftingOPCToolboxServer@@QAEXV?$basic_string@DU?$char_traits@D@std@@V?$allocator@D@2@@std@@@Z
       1103  44E 000821BA ?setWhatPropertyData@DaGetPropertiesOptions@SoftingOPCToolboxClient@@QAEXW4tagEnumPropertyData@2@@Z
       1104  44F 00082AD4 ?setXmldaGetStatusInterval@Application@SoftingOPCToolboxClient@@QAEXABK@Z
       1105  450 00083CB8 ?start@Application@SoftingOPCToolboxServer@@QAEJXZ
       1106  451 0008577A ?stop@Application@SoftingOPCToolboxServer@@QAEJV?$basic_string@DU?$char_traits@D@std@@V?$allocator@D@2@@std@@@Z
       1107  452 0008072F ?supportDatatype@Variant@@SAHG@Z
       1108  453 00082750 ?terminate@Application@SoftingOPCToolboxClient@@QAEJXZ
       1109  454 000851CB ?terminate@Application@SoftingOPCToolboxServer@@QAEJXZ
       1110  455 00084780 ?toString@DateTime@@QAE?AV?$basic_string@DU?$char_traits@D@std@@V?$allocator@D@2@@std@@XZ
       1111  456 00085ACC ?toString@ValueData@@QAE?AV?$basic_string@DU?$char_traits@D@std@@V?$allocator@D@2@@std@@XZ
       1112  457 00080F1D ?toString@ValueQT@@QAE?AV?$basic_string@DU?$char_traits@D@std@@V?$allocator@D@2@@std@@XZ
       1113  458 00085AB3 ?toString@Variant@@QAE?AV?$basic_string@DU?$char_traits@D@std@@V?$allocator@D@2@@std@@XZ
       1114  459 00084159 ?toStringGMT@DateTime@@QAE?AV?$basic_string@DU?$char_traits@D@std@@V?$allocator@D@2@@std@@XZ
       1115  45A 0007FEE7 ?trace@Application@SoftingOPCToolboxClient@@QAAXW4tagEnumTraceLevel@@W4tagEnumTraceGroup@@PBD2ZZ
       1116  45B 00082354 ?trace@Application@SoftingOPCToolboxServer@@QAAXW4tagEnumTraceLevel@@W4tagEnumTraceGroup@@PBD2ZZ
       1117  45C 00081D28 ?triggerAddedToAddressSpace@AddressSpaceElement@SoftingOPCToolboxServer@@MAEHXZ
       1118  45D 00084947 ?triggerRemovedFromAddressSpace@AddressSpaceElement@SoftingOPCToolboxServer@@MAEHXZ
       1119  45E 00083088 ?unlock@Mutex@@QAEHXZ
       1120  45F 000801DF ?updateConditionState@AeCondition@SoftingOPCToolboxClient@@UAEJV?$vector@PAVAeAttribute@SoftingOPCToolboxClient@@V?$allocator@PAVAeAttribute@SoftingOPCToolboxClient@@@std@@@std@@PAVExecutionOptions@2@@Z
       1121  460 00080DAB ?validateDaItems@DaSubscription@SoftingOPCToolboxClient@@UAEJV?$vector@PAVDaItem@SoftingOPCToolboxClient@@V?$allocator@PAVDaItem@SoftingOPCToolboxClient@@@std@@@std@@AAV?$vector@JV?$allocator@J@std@@@4@PAVExecutionOptions@2@@Z
       1122  461 000845E1 ?valueChanged@DaAddressSpaceElement@SoftingOPCToolboxServer@@UAEJAAVValueQT@@@Z
       1123  462 00080AEA ?valuesChanged@DaAddressSpaceRoot@SoftingOPCToolboxServer@@UAEJAAV?$vector@PAVDaAddressSpaceElement@SoftingOPCToolboxServer@@V?$allocator@PAVDaAddressSpaceElement@SoftingOPCToolboxServer@@@std@@@std@@AAV?$vector@PAVValueQT@@V?$allocator@PAVValueQT@@@std@@@4@@Z
       1124  463 0007F1F4 ?valuesChanged@DaTransaction@SoftingOPCToolboxServer@@QAEJXZ
       1125  464 00081850 ?variantClear@Variant@@SAJPAUtagVARIANT@@@Z
       1126  465 00080C11 ?variantCopy@Variant@@SAJPAUtagVARIANT@@0@Z
       1127  466 00083F2E ?write@DaItem@SoftingOPCToolboxClient@@UAEJPAVValueQT@@AAJPAVExecutionOptions@2@@Z
       1128  467 0008203E ?write@DaSession@SoftingOPCToolboxClient@@UAEJV?$vector@V?$basic_string@DU?$char_traits@D@std@@V?$allocator@D@2@@std@@V?$allocator@V?$basic_string@DU?$char_traits@D@std@@V?$allocator@D@2@@std@@@2@@std@@0AAV?$vector@PAVValueQT@@V?$allocator@PAVValueQT@@@std@@@4@AAV?$vector@JV?$allocator@J@std@@@4@PAVExecutionOptions@2@@Z
       1129  468 0008344D ?write@DaSubscription@SoftingOPCToolboxClient@@UAEJV?$vector@PAVDaItem@SoftingOPCToolboxClient@@V?$allocator@PAVDaItem@SoftingOPCToolboxClient@@@std@@@std@@V?$vector@PAVValueQT@@V?$allocator@PAVValueQT@@@std@@@4@AAV?$vector@JV?$allocator@J@std@@@4@PAVExecutionOptions@2@@Z
       1130  469 00083CD6 ?year@DateTime@@QAEKXZ
       1131  46A 000854E1 ?yearGMT@DateTime@@QAEKXZ
       1132  46B 0008227D _getApp@0
       1133  46C 000834CA _getApplication@0
       1134  46D 00082B7E _releaseApp@0
       1135  46E 000825E3 _releaseApplication@0

  Summary

        1000 .00cfg
        2000 .data
        2000 .idata
       3C000 .rdata
        8000 .reloc
        1000 .rsrc
      115000 .text
       7E000 .textbss
